Component: ARM Compiler 5.05 update 2 (build 169) Tool: armlink [4d0f33]

==============================================================================

Section Cross References

    freertos.o(i.MX_FREERTOS_Init) refers to tasks.o(privileged_functions) for xTaskGenericCreate
    freertos.o(i.MX_FREERTOS_Init) refers to cmsis_os.o(i.osSemaphoreCreate) for osSemaphoreCreate
    freertos.o(i.MX_FREERTOS_Init) refers to aos_cli.o(i.vRegisterCLICommands) for vRegisterCLICommands
    freertos.o(i.MX_FREERTOS_Init) refers to uart-interrupt-driven-command-console.o(i.vUARTCommandConsoleStart) for vUARTCommandConsoleStart
    freertos.o(i.MX_FREERTOS_Init) refers to freertos.o(.data) for defaultTaskHandle
    freertos.o(i.MX_FREERTOS_Init) refers to freertos.o(i.StartDefaultTask) for StartDefaultTask
    freertos.o(i.MX_FREERTOS_Init) refers to freertos.o(i.PxTask) for PxTask
    freertos.o(i.MX_FREERTOS_Init) refers to main.o(i.FrontEndTask) for FrontEndTask
    freertos.o(i.MX_FREERTOS_Init) refers to freertos.o(.bss) for PxSemaphoreHandle
    freertos.o(i.PxTask) refers to aos_pd_usart.o(i.readPxMutex) for readPxMutex
    freertos.o(i.PxTask) refers to tasks.o(i.xTaskGenericNotify) for xTaskGenericNotify
    freertos.o(i.PxTask) refers to port.o(i.vPortYield) for vPortYield
    freertos.o(i.PxTask) refers to aos.o(.data) for portStatus
    freertos.o(i.PxTask) refers to aos_pd_usart.o(.data) for PcPort
    freertos.o(i.PxTask) refers to uart-interrupt-driven-command-console.o(.data) for xCommandConsoleTask
    freertos.o(i.StartDefaultTask) refers to cmsis_os.o(i.osDelay) for osDelay
    freertos.o(i.ulMainGetRunTimeCounterValue) refers to uidiv.o(.text) for __aeabi_uidivmod
    freertos.o(i.ulMainGetRunTimeCounterValue) refers to tasks.o(privileged_functions) for xTaskGetTickCountFromISR
    freertos.o(i.ulMainGetRunTimeCounterValue) refers to system_stm32f0xx.o(.data) for SystemCoreClock
    freertos.o(i.ulMainGetRunTimeCounterValue) refers to freertos.o(.data) for ulClocksPer10thOfAMilliSecond
    freertos.o(i.vMainConfigureTimerForRunTimeStats) refers to uidiv.o(.text) for __aeabi_uidivmod
    freertos.o(i.vMainConfigureTimerForRunTimeStats) refers to system_stm32f0xx.o(.data) for SystemCoreClock
    freertos.o(i.vMainConfigureTimerForRunTimeStats) refers to freertos.o(.data) for ulClocksPer10thOfAMilliSecond
    stm32f0xx_it.o(i.DMA1_Ch1_IRQHandler) refers to stm32f0xx_hal_dma.o(i.HAL_DMA_IRQHandler) for HAL_DMA_IRQHandler
    stm32f0xx_it.o(i.DMA1_Ch1_IRQHandler) refers to aos.o(i.GetUart) for GetUart
    stm32f0xx_it.o(i.DMA1_Ch1_IRQHandler) refers to main.o(i.SampleAndForward) for SampleAndForward
    stm32f0xx_it.o(i.DMA1_Ch1_IRQHandler) refers to stm32f0xx_hal_gpio.o(i.HAL_GPIO_WritePin) for HAL_GPIO_WritePin
    stm32f0xx_it.o(i.DMA1_Ch1_IRQHandler) refers to aos_pd_dma.o(.bss) for uplinkDMA1
    stm32f0xx_it.o(i.DMA1_Ch1_IRQHandler) refers to main.o(.data) for syncCodeMode0
    stm32f0xx_it.o(i.DMA1_Ch2_3_DMA2_Ch1_2_IRQHandler) refers to stm32f0xx_hal_dma.o(i.HAL_DMA_IRQHandler) for HAL_DMA_IRQHandler
    stm32f0xx_it.o(i.DMA1_Ch2_3_DMA2_Ch1_2_IRQHandler) refers to aos_pd_dma.o(.bss) for uplinkDMA2
    stm32f0xx_it.o(i.DMA1_Ch4_7_DMA2_Ch3_5_IRQHandler) refers to stm32f0xx_hal_dma.o(i.HAL_DMA_IRQHandler) for HAL_DMA_IRQHandler
    stm32f0xx_it.o(i.DMA1_Ch4_7_DMA2_Ch3_5_IRQHandler) refers to aos_pd_dma.o(.bss) for downlinkDMA1
    stm32f0xx_it.o(i.HAL_UART_RxCpltCallback) refers to aos.o(i.GetPort) for GetPort
    stm32f0xx_it.o(i.HAL_UART_RxCpltCallback) refers to queue.o(privileged_functions) for xQueueGiveFromISR
    stm32f0xx_it.o(i.HAL_UART_RxCpltCallback) refers to freertos.o(.bss) for PxSemaphoreHandle
    stm32f0xx_it.o(i.HAL_UART_RxCpltCallback) refers to aos_pd_usart.o(.data) for UartRxReady
    stm32f0xx_it.o(i.HAL_UART_TxCpltCallback) refers to aos.o(i.GetPort) for GetPort
    stm32f0xx_it.o(i.HAL_UART_TxCpltCallback) refers to queue.o(privileged_functions) for xQueueGiveFromISR
    stm32f0xx_it.o(i.HAL_UART_TxCpltCallback) refers to freertos.o(.bss) for PxSemaphoreHandle
    stm32f0xx_it.o(i.HAL_UART_TxCpltCallback) refers to aos_pd_usart.o(.data) for UartTxReady
    stm32f0xx_it.o(i.SysTick_Handler) refers to stm32f0xx_hal.o(i.HAL_IncTick) for HAL_IncTick
    stm32f0xx_it.o(i.SysTick_Handler) refers to cmsis_os.o(i.osSystickHandler) for osSystickHandler
    stm32f0xx_it.o(i.TIM2_IRQHandler) refers to stm32f0xx_hal_tim.o(i.HAL_TIM_IRQHandler) for HAL_TIM_IRQHandler
    stm32f0xx_it.o(i.TIM2_IRQHandler) refers to aos.o(.data) for myTrig
    stm32f0xx_it.o(i.TIM2_IRQHandler) refers to aos.o(.bss) for htim2
    stm32f0xx_it.o(i.USART1_IRQHandler) refers to stm32f0xx_hal_uart_ex.o(i.HAL_UART_IRQHandler) for HAL_UART_IRQHandler
    stm32f0xx_it.o(i.USART1_IRQHandler) refers to aos_pd_usart.o(.bss) for huart1
    stm32f0xx_it.o(i.USART2_IRQHandler) refers to stm32f0xx_hal_uart_ex.o(i.HAL_UART_IRQHandler) for HAL_UART_IRQHandler
    stm32f0xx_it.o(i.USART2_IRQHandler) refers to aos_pd_usart.o(.bss) for huart2
    stm32f0xx_it.o(i.USART3_8_IRQHandler) refers to stm32f0xx_hal_uart_ex.o(i.HAL_UART_IRQHandler) for HAL_UART_IRQHandler
    stm32f0xx_it.o(i.USART3_8_IRQHandler) refers to aos_pd_usart.o(.bss) for huart3
    main.o(i.FrontEndTask) refers to main.o(i.StreamSetup) for StreamSetup
    main.o(i.FrontEndTask) refers to cmsis_os.o(i.osDelay) for osDelay
    main.o(i.SampleAndForward) refers to stm32f0xx_hal_gpio.o(i.HAL_GPIO_WritePin) for HAL_GPIO_WritePin
    main.o(i.SampleAndForward) refers to aos.o(i.startMicroDelay) for startMicroDelay
    main.o(i.SampleAndForward) refers to aos_pd_adc.o(i.SamplePD) for SamplePD
    main.o(i.SampleAndForward) refers to stm32f0xx_hal_gpio.o(i.HAL_GPIO_TogglePin) for HAL_GPIO_TogglePin
    main.o(i.SampleAndForward) refers to aos_pd_usart.o(i.writePxMutex) for writePxMutex
    main.o(i.SampleAndForward) refers to memseta.o(.text) for __aeabi_memset
    main.o(i.SampleAndForward) refers to main.o(.data) for ledStatus
    main.o(i.StreamSetup) refers to aos.o(i.GetUart) for GetUart
    main.o(i.StreamSetup) refers to aos_pd_dma.o(i.UplinkDMA1_Setup) for UplinkDMA1_Setup
    main.o(i.StreamSetup) refers to aos_pd_dma.o(i.DownlinkDMA1_Setup) for DownlinkDMA1_Setup
    main.o(i.StreamSetup) refers to aos.o(.data) for portStatus
    main.o(i.main) refers to aos.o(i.AOS_init) for AOS_init
    main.o(i.main) refers to freertos.o(i.MX_FREERTOS_Init) for MX_FREERTOS_Init
    main.o(i.main) refers to cmsis_os.o(i.osKernelStart) for osKernelStart
    system_stm32f0xx.o(i.SystemCoreClockUpdate) refers to uidiv.o(.text) for __aeabi_uidivmod
    system_stm32f0xx.o(i.SystemCoreClockUpdate) refers to system_stm32f0xx.o(.data) for SystemCoreClock
    stm32f0xx_hal_flash_ex.o(i.FLASH_MassErase) refers to stm32f0xx_hal_flash.o(.bss) for pFlash
    stm32f0xx_hal_flash_ex.o(i.FLASH_OB_DisableWRP) refers to stm32f0xx_hal_flash_ex.o(i.FLASH_OB_GetWRP) for FLASH_OB_GetWRP
    stm32f0xx_hal_flash_ex.o(i.FLASH_OB_DisableWRP) refers to stm32f0xx_hal_flash.o(i.FLASH_WaitForLastOperation) for FLASH_WaitForLastOperation
    stm32f0xx_hal_flash_ex.o(i.FLASH_OB_DisableWRP) refers to stm32f0xx_hal_flash_ex.o(i.HAL_FLASHEx_OBErase) for HAL_FLASHEx_OBErase
    stm32f0xx_hal_flash_ex.o(i.FLASH_OB_DisableWRP) refers to stm32f0xx_hal_flash.o(.bss) for pFlash
    stm32f0xx_hal_flash_ex.o(i.FLASH_OB_EnableWRP) refers to stm32f0xx_hal_flash_ex.o(i.FLASH_OB_GetWRP) for FLASH_OB_GetWRP
    stm32f0xx_hal_flash_ex.o(i.FLASH_OB_EnableWRP) refers to stm32f0xx_hal_flash.o(i.FLASH_WaitForLastOperation) for FLASH_WaitForLastOperation
    stm32f0xx_hal_flash_ex.o(i.FLASH_OB_EnableWRP) refers to stm32f0xx_hal_flash_ex.o(i.HAL_FLASHEx_OBErase) for HAL_FLASHEx_OBErase
    stm32f0xx_hal_flash_ex.o(i.FLASH_OB_EnableWRP) refers to stm32f0xx_hal_flash.o(.bss) for pFlash
    stm32f0xx_hal_flash_ex.o(i.FLASH_OB_ProgramData) refers to stm32f0xx_hal_flash.o(i.FLASH_WaitForLastOperation) for FLASH_WaitForLastOperation
    stm32f0xx_hal_flash_ex.o(i.FLASH_OB_ProgramData) refers to stm32f0xx_hal_flash.o(.bss) for pFlash
    stm32f0xx_hal_flash_ex.o(i.FLASH_OB_RDP_LevelConfig) refers to stm32f0xx_hal_flash.o(i.FLASH_WaitForLastOperation) for FLASH_WaitForLastOperation
    stm32f0xx_hal_flash_ex.o(i.FLASH_OB_RDP_LevelConfig) refers to stm32f0xx_hal_flash.o(.bss) for pFlash
    stm32f0xx_hal_flash_ex.o(i.FLASH_OB_UserConfig) refers to stm32f0xx_hal_flash.o(i.FLASH_WaitForLastOperation) for FLASH_WaitForLastOperation
    stm32f0xx_hal_flash_ex.o(i.FLASH_OB_UserConfig) refers to stm32f0xx_hal_flash.o(.bss) for pFlash
    stm32f0xx_hal_flash_ex.o(i.FLASH_PageErase) refers to stm32f0xx_hal_flash.o(.bss) for pFlash
    stm32f0xx_hal_flash_ex.o(i.HAL_FLASHEx_Erase) refers to stm32f0xx_hal_flash.o(i.FLASH_WaitForLastOperation) for FLASH_WaitForLastOperation
    stm32f0xx_hal_flash_ex.o(i.HAL_FLASHEx_Erase) refers to stm32f0xx_hal_flash_ex.o(i.FLASH_MassErase) for FLASH_MassErase
    stm32f0xx_hal_flash_ex.o(i.HAL_FLASHEx_Erase) refers to stm32f0xx_hal_flash_ex.o(i.FLASH_PageErase) for FLASH_PageErase
    stm32f0xx_hal_flash_ex.o(i.HAL_FLASHEx_Erase) refers to stm32f0xx_hal_flash.o(.bss) for pFlash
    stm32f0xx_hal_flash_ex.o(i.HAL_FLASHEx_Erase_IT) refers to stm32f0xx_hal_flash_ex.o(i.FLASH_MassErase) for FLASH_MassErase
    stm32f0xx_hal_flash_ex.o(i.HAL_FLASHEx_Erase_IT) refers to stm32f0xx_hal_flash_ex.o(i.FLASH_PageErase) for FLASH_PageErase
    stm32f0xx_hal_flash_ex.o(i.HAL_FLASHEx_Erase_IT) refers to stm32f0xx_hal_flash.o(.bss) for pFlash
    stm32f0xx_hal_flash_ex.o(i.HAL_FLASHEx_OBErase) refers to stm32f0xx_hal_flash_ex.o(i.FLASH_OB_GetRDP) for FLASH_OB_GetRDP
    stm32f0xx_hal_flash_ex.o(i.HAL_FLASHEx_OBErase) refers to stm32f0xx_hal_flash.o(i.FLASH_WaitForLastOperation) for FLASH_WaitForLastOperation
    stm32f0xx_hal_flash_ex.o(i.HAL_FLASHEx_OBErase) refers to stm32f0xx_hal_flash_ex.o(i.FLASH_OB_RDP_LevelConfig) for FLASH_OB_RDP_LevelConfig
    stm32f0xx_hal_flash_ex.o(i.HAL_FLASHEx_OBErase) refers to stm32f0xx_hal_flash.o(.bss) for pFlash
    stm32f0xx_hal_flash_ex.o(i.HAL_FLASHEx_OBGetConfig) refers to stm32f0xx_hal_flash_ex.o(i.FLASH_OB_GetWRP) for FLASH_OB_GetWRP
    stm32f0xx_hal_flash_ex.o(i.HAL_FLASHEx_OBGetConfig) refers to stm32f0xx_hal_flash_ex.o(i.FLASH_OB_GetRDP) for FLASH_OB_GetRDP
    stm32f0xx_hal_flash_ex.o(i.HAL_FLASHEx_OBGetConfig) refers to stm32f0xx_hal_flash_ex.o(i.FLASH_OB_GetUser) for FLASH_OB_GetUser
    stm32f0xx_hal_flash_ex.o(i.HAL_FLASHEx_OBProgram) refers to stm32f0xx_hal_flash_ex.o(i.FLASH_OB_EnableWRP) for FLASH_OB_EnableWRP
    stm32f0xx_hal_flash_ex.o(i.HAL_FLASHEx_OBProgram) refers to stm32f0xx_hal_flash_ex.o(i.FLASH_OB_DisableWRP) for FLASH_OB_DisableWRP
    stm32f0xx_hal_flash_ex.o(i.HAL_FLASHEx_OBProgram) refers to stm32f0xx_hal_flash_ex.o(i.FLASH_OB_RDP_LevelConfig) for FLASH_OB_RDP_LevelConfig
    stm32f0xx_hal_flash_ex.o(i.HAL_FLASHEx_OBProgram) refers to stm32f0xx_hal_flash_ex.o(i.FLASH_OB_UserConfig) for FLASH_OB_UserConfig
    stm32f0xx_hal_flash_ex.o(i.HAL_FLASHEx_OBProgram) refers to stm32f0xx_hal_flash_ex.o(i.FLASH_OB_ProgramData) for FLASH_OB_ProgramData
    stm32f0xx_hal_rcc.o(i.HAL_RCC_ClockConfig) refers to stm32f0xx_hal.o(i.HAL_GetTick) for HAL_GetTick
    stm32f0xx_hal_rcc.o(i.HAL_RCC_ClockConfig) refers to stm32f0xx_hal.o(i.HAL_InitTick) for HAL_InitTick
    stm32f0xx_hal_rcc.o(i.HAL_RCC_GetHCLKFreq) refers to stm32f0xx_hal_rcc.o(i.HAL_RCC_GetSysClockFreq) for HAL_RCC_GetSysClockFreq
    stm32f0xx_hal_rcc.o(i.HAL_RCC_GetHCLKFreq) refers to stm32f0xx_hal_rcc.o(.constdata) for aAPBAHBPrescTable
    stm32f0xx_hal_rcc.o(i.HAL_RCC_GetHCLKFreq) refers to system_stm32f0xx.o(.data) for SystemCoreClock
    stm32f0xx_hal_rcc.o(i.HAL_RCC_GetPCLK1Freq) refers to stm32f0xx_hal_rcc.o(i.HAL_RCC_GetHCLKFreq) for HAL_RCC_GetHCLKFreq
    stm32f0xx_hal_rcc.o(i.HAL_RCC_GetPCLK1Freq) refers to stm32f0xx_hal_rcc.o(.constdata) for aAPBAHBPrescTable
    stm32f0xx_hal_rcc.o(i.HAL_RCC_GetSysClockFreq) refers to uidiv.o(.text) for __aeabi_uidivmod
    stm32f0xx_hal_rcc.o(i.HAL_RCC_MCOConfig) refers to stm32f0xx_hal_gpio.o(i.HAL_GPIO_Init) for HAL_GPIO_Init
    stm32f0xx_hal_rcc.o(i.HAL_RCC_NMI_IRQHandler) refers to stm32f0xx_hal_rcc.o(i.HAL_RCC_CSSCallback) for HAL_RCC_CSSCallback
    stm32f0xx_hal_rcc.o(i.HAL_RCC_OscConfig) refers to stm32f0xx_hal.o(i.HAL_GetTick) for HAL_GetTick
    stm32f0xx_hal_flash.o(i.FLASH_Program_HalfWord) refers to stm32f0xx_hal_flash.o(.bss) for pFlash
    stm32f0xx_hal_flash.o(i.FLASH_SetErrorCode) refers to stm32f0xx_hal_flash.o(.bss) for pFlash
    stm32f0xx_hal_flash.o(i.FLASH_WaitForLastOperation) refers to stm32f0xx_hal.o(i.HAL_GetTick) for HAL_GetTick
    stm32f0xx_hal_flash.o(i.FLASH_WaitForLastOperation) refers to stm32f0xx_hal_flash.o(i.FLASH_SetErrorCode) for FLASH_SetErrorCode
    stm32f0xx_hal_flash.o(i.HAL_FLASH_GetError) refers to stm32f0xx_hal_flash.o(.bss) for pFlash
    stm32f0xx_hal_flash.o(i.HAL_FLASH_IRQHandler) refers to stm32f0xx_hal_flash.o(i.FLASH_SetErrorCode) for FLASH_SetErrorCode
    stm32f0xx_hal_flash.o(i.HAL_FLASH_IRQHandler) refers to stm32f0xx_hal_flash.o(i.HAL_FLASH_OperationErrorCallback) for HAL_FLASH_OperationErrorCallback
    stm32f0xx_hal_flash.o(i.HAL_FLASH_IRQHandler) refers to stm32f0xx_hal_flash.o(i.HAL_FLASH_EndOfOperationCallback) for HAL_FLASH_EndOfOperationCallback
    stm32f0xx_hal_flash.o(i.HAL_FLASH_IRQHandler) refers to stm32f0xx_hal_flash_ex.o(i.FLASH_PageErase) for FLASH_PageErase
    stm32f0xx_hal_flash.o(i.HAL_FLASH_IRQHandler) refers to stm32f0xx_hal_flash.o(i.FLASH_Program_HalfWord) for FLASH_Program_HalfWord
    stm32f0xx_hal_flash.o(i.HAL_FLASH_IRQHandler) refers to stm32f0xx_hal_flash.o(.bss) for pFlash
    stm32f0xx_hal_flash.o(i.HAL_FLASH_OB_Launch) refers to stm32f0xx_hal_flash.o(i.FLASH_WaitForLastOperation) for FLASH_WaitForLastOperation
    stm32f0xx_hal_flash.o(i.HAL_FLASH_Program) refers to stm32f0xx_hal_flash.o(i.FLASH_WaitForLastOperation) for FLASH_WaitForLastOperation
    stm32f0xx_hal_flash.o(i.HAL_FLASH_Program) refers to llushr.o(.text) for __aeabi_llsr
    stm32f0xx_hal_flash.o(i.HAL_FLASH_Program) refers to stm32f0xx_hal_flash.o(i.FLASH_Program_HalfWord) for FLASH_Program_HalfWord
    stm32f0xx_hal_flash.o(i.HAL_FLASH_Program) refers to stm32f0xx_hal_flash.o(.bss) for pFlash
    stm32f0xx_hal_flash.o(i.HAL_FLASH_Program_IT) refers to stm32f0xx_hal_flash.o(i.FLASH_Program_HalfWord) for FLASH_Program_HalfWord
    stm32f0xx_hal_flash.o(i.HAL_FLASH_Program_IT) refers to stm32f0xx_hal_flash.o(.bss) for pFlash
    stm32f0xx_hal_cortex.o(i.HAL_NVIC_SetPriority) refers to stm32f0xx_hal_cortex.o(i.NVIC_SetPriority) for NVIC_SetPriority
    stm32f0xx_hal_cortex.o(i.HAL_SYSTICK_Config) refers to stm32f0xx_hal_cortex.o(i.NVIC_SetPriority) for NVIC_SetPriority
    stm32f0xx_hal_cortex.o(i.HAL_SYSTICK_IRQHandler) refers to stm32f0xx_hal_cortex.o(i.HAL_SYSTICK_Callback) for HAL_SYSTICK_Callback
    stm32f0xx_hal_pwr_ex.o(i.HAL_PWREx_Vddio2Monitor_IRQHandler) refers to stm32f0xx_hal_pwr_ex.o(i.HAL_PWREx_Vddio2MonitorCallback) for HAL_PWREx_Vddio2MonitorCallback
    stm32f0xx_hal_pwr_ex.o(i.HAL_PWR_PVD_IRQHandler) refers to stm32f0xx_hal_pwr_ex.o(i.HAL_PWR_PVDCallback) for HAL_PWR_PVDCallback
    stm32f0xx_hal_uart.o(i.HAL_HalfDuplex_Init) refers to aos_pd_usart.o(i.HAL_UART_MspInit) for HAL_UART_MspInit
    stm32f0xx_hal_uart.o(i.HAL_HalfDuplex_Init) refers to stm32f0xx_hal_uart.o(i.UART_SetConfig) for UART_SetConfig
    stm32f0xx_hal_uart.o(i.HAL_HalfDuplex_Init) refers to stm32f0xx_hal_uart.o(i.UART_AdvFeatureConfig) for UART_AdvFeatureConfig
    stm32f0xx_hal_uart.o(i.HAL_HalfDuplex_Init) refers to stm32f0xx_hal_uart.o(i.UART_CheckIdleState) for UART_CheckIdleState
    stm32f0xx_hal_uart.o(i.HAL_MultiProcessor_DisableMuteMode) refers to stm32f0xx_hal_uart.o(i.UART_CheckIdleState) for UART_CheckIdleState
    stm32f0xx_hal_uart.o(i.HAL_MultiProcessor_EnableMuteMode) refers to stm32f0xx_hal_uart.o(i.UART_CheckIdleState) for UART_CheckIdleState
    stm32f0xx_hal_uart.o(i.HAL_MultiProcessor_Init) refers to aos_pd_usart.o(i.HAL_UART_MspInit) for HAL_UART_MspInit
    stm32f0xx_hal_uart.o(i.HAL_MultiProcessor_Init) refers to stm32f0xx_hal_uart.o(i.UART_SetConfig) for UART_SetConfig
    stm32f0xx_hal_uart.o(i.HAL_MultiProcessor_Init) refers to stm32f0xx_hal_uart.o(i.UART_AdvFeatureConfig) for UART_AdvFeatureConfig
    stm32f0xx_hal_uart.o(i.HAL_MultiProcessor_Init) refers to stm32f0xx_hal_uart.o(i.UART_CheckIdleState) for UART_CheckIdleState
    stm32f0xx_hal_uart.o(i.HAL_UART_DMAStop) refers to stm32f0xx_hal_dma.o(i.HAL_DMA_Abort) for HAL_DMA_Abort
    stm32f0xx_hal_uart.o(i.HAL_UART_DeInit) refers to stm32f0xx_hal_uart.o(i.HAL_UART_MspDeInit) for HAL_UART_MspDeInit
    stm32f0xx_hal_uart.o(i.HAL_UART_Init) refers to aos_pd_usart.o(i.HAL_UART_MspInit) for HAL_UART_MspInit
    stm32f0xx_hal_uart.o(i.HAL_UART_Init) refers to stm32f0xx_hal_uart.o(i.UART_SetConfig) for UART_SetConfig
    stm32f0xx_hal_uart.o(i.HAL_UART_Init) refers to stm32f0xx_hal_uart.o(i.UART_AdvFeatureConfig) for UART_AdvFeatureConfig
    stm32f0xx_hal_uart.o(i.HAL_UART_Init) refers to stm32f0xx_hal_uart.o(i.UART_CheckIdleState) for UART_CheckIdleState
    stm32f0xx_hal_uart.o(i.HAL_UART_Receive) refers to stm32f0xx_hal_uart.o(i.UART_WaitOnFlagUntilTimeout) for UART_WaitOnFlagUntilTimeout
    stm32f0xx_hal_uart.o(i.HAL_UART_Receive_DMA) refers to stm32f0xx_hal_dma.o(i.HAL_DMA_Start_IT) for HAL_DMA_Start_IT
    stm32f0xx_hal_uart.o(i.HAL_UART_Receive_DMA) refers to stm32f0xx_hal_uart.o(i.UART_DMAReceiveCplt) for UART_DMAReceiveCplt
    stm32f0xx_hal_uart.o(i.HAL_UART_Receive_DMA) refers to stm32f0xx_hal_uart.o(i.UART_DMARxHalfCplt) for UART_DMARxHalfCplt
    stm32f0xx_hal_uart.o(i.HAL_UART_Receive_DMA) refers to stm32f0xx_hal_uart.o(i.UART_DMAError) for UART_DMAError
    stm32f0xx_hal_uart.o(i.HAL_UART_Transmit) refers to stm32f0xx_hal_uart.o(i.UART_WaitOnFlagUntilTimeout) for UART_WaitOnFlagUntilTimeout
    stm32f0xx_hal_uart.o(i.HAL_UART_Transmit_DMA) refers to stm32f0xx_hal_dma.o(i.HAL_DMA_Start_IT) for HAL_DMA_Start_IT
    stm32f0xx_hal_uart.o(i.HAL_UART_Transmit_DMA) refers to stm32f0xx_hal_uart.o(i.UART_DMATransmitCplt) for UART_DMATransmitCplt
    stm32f0xx_hal_uart.o(i.HAL_UART_Transmit_DMA) refers to stm32f0xx_hal_uart.o(i.UART_DMATxHalfCplt) for UART_DMATxHalfCplt
    stm32f0xx_hal_uart.o(i.HAL_UART_Transmit_DMA) refers to stm32f0xx_hal_uart.o(i.UART_DMAError) for UART_DMAError
    stm32f0xx_hal_uart.o(i.UART_CheckIdleState) refers to stm32f0xx_hal_uart.o(i.UART_WaitOnFlagUntilTimeout) for UART_WaitOnFlagUntilTimeout
    stm32f0xx_hal_uart.o(i.UART_DMAError) refers to stm32f0xx_hal_uart.o(i.HAL_UART_ErrorCallback) for HAL_UART_ErrorCallback
    stm32f0xx_hal_uart.o(i.UART_DMAReceiveCplt) refers to stm32f0xx_it.o(i.HAL_UART_RxCpltCallback) for HAL_UART_RxCpltCallback
    stm32f0xx_hal_uart.o(i.UART_DMARxHalfCplt) refers to stm32f0xx_hal_uart.o(i.HAL_UART_RxHalfCpltCallback) for HAL_UART_RxHalfCpltCallback
    stm32f0xx_hal_uart.o(i.UART_DMATransmitCplt) refers to stm32f0xx_it.o(i.HAL_UART_TxCpltCallback) for HAL_UART_TxCpltCallback
    stm32f0xx_hal_uart.o(i.UART_DMATxHalfCplt) refers to stm32f0xx_hal_uart.o(i.HAL_UART_TxHalfCpltCallback) for HAL_UART_TxHalfCpltCallback
    stm32f0xx_hal_uart.o(i.UART_EndTransmit_IT) refers to stm32f0xx_it.o(i.HAL_UART_TxCpltCallback) for HAL_UART_TxCpltCallback
    stm32f0xx_hal_uart.o(i.UART_Receive_IT) refers to stm32f0xx_it.o(i.HAL_UART_RxCpltCallback) for HAL_UART_RxCpltCallback
    stm32f0xx_hal_uart.o(i.UART_SetConfig) refers to stm32f0xx_hal_rcc.o(i.HAL_RCC_GetPCLK1Freq) for HAL_RCC_GetPCLK1Freq
    stm32f0xx_hal_uart.o(i.UART_SetConfig) refers to uidiv.o(.text) for __aeabi_uidivmod
    stm32f0xx_hal_uart.o(i.UART_SetConfig) refers to stm32f0xx_hal_rcc.o(i.HAL_RCC_GetSysClockFreq) for HAL_RCC_GetSysClockFreq
    stm32f0xx_hal_uart.o(i.UART_WaitOnFlagUntilTimeout) refers to stm32f0xx_hal.o(i.HAL_GetTick) for HAL_GetTick
    stm32f0xx_hal_dma.o(i.HAL_DMA_Abort) refers to stm32f0xx_hal.o(i.HAL_GetTick) for HAL_GetTick
    stm32f0xx_hal_dma.o(i.HAL_DMA_PollForTransfer) refers to stm32f0xx_hal.o(i.HAL_GetTick) for HAL_GetTick
    stm32f0xx_hal_dma.o(i.HAL_DMA_Start) refers to stm32f0xx_hal_dma.o(i.DMA_SetConfig) for DMA_SetConfig
    stm32f0xx_hal_dma.o(i.HAL_DMA_Start_IT) refers to stm32f0xx_hal_dma.o(i.DMA_SetConfig) for DMA_SetConfig
    stm32f0xx_hal_rcc_ex.o(i.HAL_RCCEx_CRSWaitSynchronization) refers to stm32f0xx_hal.o(i.HAL_GetTick) for HAL_GetTick
    stm32f0xx_hal_rcc_ex.o(i.HAL_RCCEx_GetPeriphCLKFreq) refers to stm32f0xx_hal_rcc.o(i.HAL_RCC_GetPCLK1Freq) for HAL_RCC_GetPCLK1Freq
    stm32f0xx_hal_rcc_ex.o(i.HAL_RCCEx_GetPeriphCLKFreq) refers to stm32f0xx_hal_rcc.o(i.HAL_RCC_GetSysClockFreq) for HAL_RCC_GetSysClockFreq
    stm32f0xx_hal_rcc_ex.o(i.HAL_RCCEx_PeriphCLKConfig) refers to stm32f0xx_hal.o(i.HAL_GetTick) for HAL_GetTick
    stm32f0xx_hal.o(i.HAL_DeInit) refers to stm32f0xx_hal.o(i.HAL_MspDeInit) for HAL_MspDeInit
    stm32f0xx_hal.o(i.HAL_Delay) refers to stm32f0xx_hal.o(i.HAL_GetTick) for HAL_GetTick
    stm32f0xx_hal.o(i.HAL_GetTick) refers to stm32f0xx_hal.o(.data) for uwTick
    stm32f0xx_hal.o(i.HAL_IncTick) refers to stm32f0xx_hal.o(.data) for uwTick
    stm32f0xx_hal.o(i.HAL_Init) refers to stm32f0xx_hal.o(i.HAL_InitTick) for HAL_InitTick
    stm32f0xx_hal.o(i.HAL_Init) refers to stm32f0xx_hal.o(i.HAL_MspInit) for HAL_MspInit
    stm32f0xx_hal.o(i.HAL_InitTick) refers to stm32f0xx_hal_rcc.o(i.HAL_RCC_GetHCLKFreq) for HAL_RCC_GetHCLKFreq
    stm32f0xx_hal.o(i.HAL_InitTick) refers to uidiv.o(.text) for __aeabi_uidivmod
    stm32f0xx_hal.o(i.HAL_InitTick) refers to stm32f0xx_hal_cortex.o(i.HAL_SYSTICK_Config) for HAL_SYSTICK_Config
    stm32f0xx_hal.o(i.HAL_InitTick) refers to stm32f0xx_hal_cortex.o(i.HAL_NVIC_SetPriority) for HAL_NVIC_SetPriority
    stm32f0xx_hal_gpio.o(i.HAL_GPIO_EXTI_IRQHandler) refers to stm32f0xx_hal_gpio.o(i.HAL_GPIO_EXTI_Callback) for HAL_GPIO_EXTI_Callback
    stm32f0xx_hal_uart_ex.o(i.HAL_LIN_Init) refers to aos_pd_usart.o(i.HAL_UART_MspInit) for HAL_UART_MspInit
    stm32f0xx_hal_uart_ex.o(i.HAL_LIN_Init) refers to stm32f0xx_hal_uart.o(i.UART_SetConfig) for UART_SetConfig
    stm32f0xx_hal_uart_ex.o(i.HAL_LIN_Init) refers to stm32f0xx_hal_uart.o(i.UART_AdvFeatureConfig) for UART_AdvFeatureConfig
    stm32f0xx_hal_uart_ex.o(i.HAL_LIN_Init) refers to stm32f0xx_hal_uart.o(i.UART_CheckIdleState) for UART_CheckIdleState
    stm32f0xx_hal_uart_ex.o(i.HAL_MultiProcessorEx_AddressLength_Set) refers to stm32f0xx_hal_uart.o(i.UART_CheckIdleState) for UART_CheckIdleState
    stm32f0xx_hal_uart_ex.o(i.HAL_RS485Ex_Init) refers to aos_pd_usart.o(i.HAL_UART_MspInit) for HAL_UART_MspInit
    stm32f0xx_hal_uart_ex.o(i.HAL_RS485Ex_Init) refers to stm32f0xx_hal_uart.o(i.UART_SetConfig) for UART_SetConfig
    stm32f0xx_hal_uart_ex.o(i.HAL_RS485Ex_Init) refers to stm32f0xx_hal_uart.o(i.UART_AdvFeatureConfig) for UART_AdvFeatureConfig
    stm32f0xx_hal_uart_ex.o(i.HAL_RS485Ex_Init) refers to stm32f0xx_hal_uart.o(i.UART_CheckIdleState) for UART_CheckIdleState
    stm32f0xx_hal_uart_ex.o(i.HAL_UARTEx_StopModeWakeUpSourceConfig) refers to stm32f0xx_hal_uart_ex.o(i.UARTEx_Wakeup_AddressConfig) for UARTEx_Wakeup_AddressConfig
    stm32f0xx_hal_uart_ex.o(i.HAL_UARTEx_StopModeWakeUpSourceConfig) refers to stm32f0xx_hal_uart.o(i.UART_WaitOnFlagUntilTimeout) for UART_WaitOnFlagUntilTimeout
    stm32f0xx_hal_uart_ex.o(i.HAL_UART_IRQHandler) refers to stm32f0xx_hal_uart.o(i.HAL_UART_ErrorCallback) for HAL_UART_ErrorCallback
    stm32f0xx_hal_uart_ex.o(i.HAL_UART_IRQHandler) refers to stm32f0xx_hal_uart_ex.o(i.HAL_UARTEx_WakeupCallback) for HAL_UARTEx_WakeupCallback
    stm32f0xx_hal_uart_ex.o(i.HAL_UART_IRQHandler) refers to stm32f0xx_hal_uart.o(i.UART_Receive_IT) for UART_Receive_IT
    stm32f0xx_hal_uart_ex.o(i.HAL_UART_IRQHandler) refers to stm32f0xx_hal_uart.o(i.UART_Transmit_IT) for UART_Transmit_IT
    stm32f0xx_hal_uart_ex.o(i.HAL_UART_IRQHandler) refers to stm32f0xx_hal_uart.o(i.UART_EndTransmit_IT) for UART_EndTransmit_IT
    stm32f0xx_hal_tim.o(i.HAL_TIM_Base_DeInit) refers to stm32f0xx_hal_tim.o(i.HAL_TIM_Base_MspDeInit) for HAL_TIM_Base_MspDeInit
    stm32f0xx_hal_tim.o(i.HAL_TIM_Base_Init) refers to stm32f0xx_hal_tim.o(i.HAL_TIM_Base_MspInit) for HAL_TIM_Base_MspInit
    stm32f0xx_hal_tim.o(i.HAL_TIM_Base_Init) refers to stm32f0xx_hal_tim.o(i.TIM_Base_SetConfig) for TIM_Base_SetConfig
    stm32f0xx_hal_tim.o(i.HAL_TIM_Base_Start_DMA) refers to stm32f0xx_hal_dma.o(i.HAL_DMA_Start_IT) for HAL_DMA_Start_IT
    stm32f0xx_hal_tim.o(i.HAL_TIM_Base_Start_DMA) refers to stm32f0xx_hal_tim.o(i.TIM_DMAPeriodElapsedCplt) for TIM_DMAPeriodElapsedCplt
    stm32f0xx_hal_tim.o(i.HAL_TIM_Base_Start_DMA) refers to stm32f0xx_hal_tim.o(i.TIM_DMAError) for TIM_DMAError
    stm32f0xx_hal_tim.o(i.HAL_TIM_ConfigClockSource) refers to stm32f0xx_hal_tim.o(i.TIM_ETR_SetConfig) for TIM_ETR_SetConfig
    stm32f0xx_hal_tim.o(i.HAL_TIM_ConfigClockSource) refers to stm32f0xx_hal_tim.o(i.TIM_TI1_ConfigInputStage) for TIM_TI1_ConfigInputStage
    stm32f0xx_hal_tim.o(i.HAL_TIM_ConfigClockSource) refers to stm32f0xx_hal_tim.o(i.TIM_ITRx_SetConfig) for TIM_ITRx_SetConfig
    stm32f0xx_hal_tim.o(i.HAL_TIM_ConfigClockSource) refers to stm32f0xx_hal_tim.o(i.TIM_TI2_ConfigInputStage) for TIM_TI2_ConfigInputStage
    stm32f0xx_hal_tim.o(i.HAL_TIM_ConfigOCrefClear) refers to stm32f0xx_hal_tim.o(i.TIM_ETR_SetConfig) for TIM_ETR_SetConfig
    stm32f0xx_hal_tim.o(i.HAL_TIM_DMABurst_ReadStart) refers to stm32f0xx_hal_dma.o(i.HAL_DMA_Start_IT) for HAL_DMA_Start_IT
    stm32f0xx_hal_tim.o(i.HAL_TIM_DMABurst_ReadStart) refers to stm32f0xx_hal_tim.o(i.TIM_DMAPeriodElapsedCplt) for TIM_DMAPeriodElapsedCplt
    stm32f0xx_hal_tim.o(i.HAL_TIM_DMABurst_ReadStart) refers to stm32f0xx_hal_tim.o(i.TIM_DMAError) for TIM_DMAError
    stm32f0xx_hal_tim.o(i.HAL_TIM_DMABurst_ReadStart) refers to stm32f0xx_hal_tim.o(i.TIM_DMACaptureCplt) for TIM_DMACaptureCplt
    stm32f0xx_hal_tim.o(i.HAL_TIM_DMABurst_ReadStart) refers to stm32f0xx_hal_tim_ex.o(i.TIMEx_DMACommutationCplt) for TIMEx_DMACommutationCplt
    stm32f0xx_hal_tim.o(i.HAL_TIM_DMABurst_ReadStart) refers to stm32f0xx_hal_tim.o(i.TIM_DMATriggerCplt) for TIM_DMATriggerCplt
    stm32f0xx_hal_tim.o(i.HAL_TIM_DMABurst_ReadStop) refers to stm32f0xx_hal_dma.o(i.HAL_DMA_Abort) for HAL_DMA_Abort
    stm32f0xx_hal_tim.o(i.HAL_TIM_DMABurst_WriteStart) refers to stm32f0xx_hal_dma.o(i.HAL_DMA_Start_IT) for HAL_DMA_Start_IT
    stm32f0xx_hal_tim.o(i.HAL_TIM_DMABurst_WriteStart) refers to stm32f0xx_hal_tim.o(i.TIM_DMAPeriodElapsedCplt) for TIM_DMAPeriodElapsedCplt
    stm32f0xx_hal_tim.o(i.HAL_TIM_DMABurst_WriteStart) refers to stm32f0xx_hal_tim.o(i.TIM_DMAError) for TIM_DMAError
    stm32f0xx_hal_tim.o(i.HAL_TIM_DMABurst_WriteStart) refers to stm32f0xx_hal_tim.o(i.TIM_DMADelayPulseCplt) for TIM_DMADelayPulseCplt
    stm32f0xx_hal_tim.o(i.HAL_TIM_DMABurst_WriteStart) refers to stm32f0xx_hal_tim_ex.o(i.TIMEx_DMACommutationCplt) for TIMEx_DMACommutationCplt
    stm32f0xx_hal_tim.o(i.HAL_TIM_DMABurst_WriteStart) refers to stm32f0xx_hal_tim.o(i.TIM_DMATriggerCplt) for TIM_DMATriggerCplt
    stm32f0xx_hal_tim.o(i.HAL_TIM_DMABurst_WriteStop) refers to stm32f0xx_hal_dma.o(i.HAL_DMA_Abort) for HAL_DMA_Abort
    stm32f0xx_hal_tim.o(i.HAL_TIM_Encoder_DeInit) refers to stm32f0xx_hal_tim.o(i.HAL_TIM_Encoder_MspDeInit) for HAL_TIM_Encoder_MspDeInit
    stm32f0xx_hal_tim.o(i.HAL_TIM_Encoder_Init) refers to stm32f0xx_hal_tim.o(i.HAL_TIM_Encoder_MspInit) for HAL_TIM_Encoder_MspInit
    stm32f0xx_hal_tim.o(i.HAL_TIM_Encoder_Init) refers to stm32f0xx_hal_tim.o(i.TIM_Base_SetConfig) for TIM_Base_SetConfig
    stm32f0xx_hal_tim.o(i.HAL_TIM_Encoder_Start) refers to stm32f0xx_hal_tim.o(i.TIM_CCxChannelCmd) for TIM_CCxChannelCmd
    stm32f0xx_hal_tim.o(i.HAL_TIM_Encoder_Start_DMA) refers to stm32f0xx_hal_dma.o(i.HAL_DMA_Start_IT) for HAL_DMA_Start_IT
    stm32f0xx_hal_tim.o(i.HAL_TIM_Encoder_Start_DMA) refers to stm32f0xx_hal_tim.o(i.TIM_CCxChannelCmd) for TIM_CCxChannelCmd
    stm32f0xx_hal_tim.o(i.HAL_TIM_Encoder_Start_DMA) refers to stm32f0xx_hal_tim.o(i.TIM_DMACaptureCplt) for TIM_DMACaptureCplt
    stm32f0xx_hal_tim.o(i.HAL_TIM_Encoder_Start_DMA) refers to stm32f0xx_hal_tim.o(i.TIM_DMAError) for TIM_DMAError
    stm32f0xx_hal_tim.o(i.HAL_TIM_Encoder_Start_IT) refers to stm32f0xx_hal_tim.o(i.TIM_CCxChannelCmd) for TIM_CCxChannelCmd
    stm32f0xx_hal_tim.o(i.HAL_TIM_Encoder_Stop) refers to stm32f0xx_hal_tim.o(i.TIM_CCxChannelCmd) for TIM_CCxChannelCmd
    stm32f0xx_hal_tim.o(i.HAL_TIM_Encoder_Stop_DMA) refers to stm32f0xx_hal_tim.o(i.TIM_CCxChannelCmd) for TIM_CCxChannelCmd
    stm32f0xx_hal_tim.o(i.HAL_TIM_Encoder_Stop_IT) refers to stm32f0xx_hal_tim.o(i.TIM_CCxChannelCmd) for TIM_CCxChannelCmd
    stm32f0xx_hal_tim.o(i.HAL_TIM_IC_ConfigChannel) refers to stm32f0xx_hal_tim.o(i.TIM_TI1_SetConfig) for TIM_TI1_SetConfig
    stm32f0xx_hal_tim.o(i.HAL_TIM_IC_ConfigChannel) refers to stm32f0xx_hal_tim.o(i.TIM_TI2_SetConfig) for TIM_TI2_SetConfig
    stm32f0xx_hal_tim.o(i.HAL_TIM_IC_ConfigChannel) refers to stm32f0xx_hal_tim.o(i.TIM_TI3_SetConfig) for TIM_TI3_SetConfig
    stm32f0xx_hal_tim.o(i.HAL_TIM_IC_ConfigChannel) refers to stm32f0xx_hal_tim.o(i.TIM_TI4_SetConfig) for TIM_TI4_SetConfig
    stm32f0xx_hal_tim.o(i.HAL_TIM_IC_DeInit) refers to stm32f0xx_hal_tim.o(i.HAL_TIM_IC_MspDeInit) for HAL_TIM_IC_MspDeInit
    stm32f0xx_hal_tim.o(i.HAL_TIM_IC_Init) refers to stm32f0xx_hal_tim.o(i.HAL_TIM_IC_MspInit) for HAL_TIM_IC_MspInit
    stm32f0xx_hal_tim.o(i.HAL_TIM_IC_Init) refers to stm32f0xx_hal_tim.o(i.TIM_Base_SetConfig) for TIM_Base_SetConfig
    stm32f0xx_hal_tim.o(i.HAL_TIM_IC_Start) refers to stm32f0xx_hal_tim.o(i.TIM_CCxChannelCmd) for TIM_CCxChannelCmd
    stm32f0xx_hal_tim.o(i.HAL_TIM_IC_Start_DMA) refers to stm32f0xx_hal_dma.o(i.HAL_DMA_Start_IT) for HAL_DMA_Start_IT
    stm32f0xx_hal_tim.o(i.HAL_TIM_IC_Start_DMA) refers to stm32f0xx_hal_tim.o(i.TIM_CCxChannelCmd) for TIM_CCxChannelCmd
    stm32f0xx_hal_tim.o(i.HAL_TIM_IC_Start_DMA) refers to stm32f0xx_hal_tim.o(i.TIM_DMACaptureCplt) for TIM_DMACaptureCplt
    stm32f0xx_hal_tim.o(i.HAL_TIM_IC_Start_DMA) refers to stm32f0xx_hal_tim.o(i.TIM_DMAError) for TIM_DMAError
    stm32f0xx_hal_tim.o(i.HAL_TIM_IC_Start_IT) refers to stm32f0xx_hal_tim.o(i.TIM_CCxChannelCmd) for TIM_CCxChannelCmd
    stm32f0xx_hal_tim.o(i.HAL_TIM_IC_Stop) refers to stm32f0xx_hal_tim.o(i.TIM_CCxChannelCmd) for TIM_CCxChannelCmd
    stm32f0xx_hal_tim.o(i.HAL_TIM_IC_Stop_DMA) refers to stm32f0xx_hal_tim.o(i.TIM_CCxChannelCmd) for TIM_CCxChannelCmd
    stm32f0xx_hal_tim.o(i.HAL_TIM_IC_Stop_IT) refers to stm32f0xx_hal_tim.o(i.TIM_CCxChannelCmd) for TIM_CCxChannelCmd
    stm32f0xx_hal_tim.o(i.HAL_TIM_IRQHandler) refers to stm32f0xx_hal_tim.o(i.HAL_TIM_IC_CaptureCallback) for HAL_TIM_IC_CaptureCallback
    stm32f0xx_hal_tim.o(i.HAL_TIM_IRQHandler) refers to stm32f0xx_hal_tim.o(i.HAL_TIM_OC_DelayElapsedCallback) for HAL_TIM_OC_DelayElapsedCallback
    stm32f0xx_hal_tim.o(i.HAL_TIM_IRQHandler) refers to stm32f0xx_hal_tim.o(i.HAL_TIM_PWM_PulseFinishedCallback) for HAL_TIM_PWM_PulseFinishedCallback
    stm32f0xx_hal_tim.o(i.HAL_TIM_IRQHandler) refers to stm32f0xx_hal_tim.o(i.HAL_TIM_PeriodElapsedCallback) for HAL_TIM_PeriodElapsedCallback
    stm32f0xx_hal_tim.o(i.HAL_TIM_IRQHandler) refers to stm32f0xx_hal_tim_ex.o(i.HAL_TIMEx_BreakCallback) for HAL_TIMEx_BreakCallback
    stm32f0xx_hal_tim.o(i.HAL_TIM_IRQHandler) refers to stm32f0xx_hal_tim.o(i.HAL_TIM_TriggerCallback) for HAL_TIM_TriggerCallback
    stm32f0xx_hal_tim.o(i.HAL_TIM_IRQHandler) refers to stm32f0xx_hal_tim_ex.o(i.HAL_TIMEx_CommutationCallback) for HAL_TIMEx_CommutationCallback
    stm32f0xx_hal_tim.o(i.HAL_TIM_OC_ConfigChannel) refers to stm32f0xx_hal_tim.o(i.TIM_OC1_SetConfig) for TIM_OC1_SetConfig
    stm32f0xx_hal_tim.o(i.HAL_TIM_OC_ConfigChannel) refers to stm32f0xx_hal_tim.o(i.TIM_OC2_SetConfig) for TIM_OC2_SetConfig
    stm32f0xx_hal_tim.o(i.HAL_TIM_OC_ConfigChannel) refers to stm32f0xx_hal_tim.o(i.TIM_OC3_SetConfig) for TIM_OC3_SetConfig
    stm32f0xx_hal_tim.o(i.HAL_TIM_OC_ConfigChannel) refers to stm32f0xx_hal_tim.o(i.TIM_OC4_SetConfig) for TIM_OC4_SetConfig
    stm32f0xx_hal_tim.o(i.HAL_TIM_OC_DeInit) refers to stm32f0xx_hal_tim.o(i.HAL_TIM_OC_MspDeInit) for HAL_TIM_OC_MspDeInit
    stm32f0xx_hal_tim.o(i.HAL_TIM_OC_Init) refers to stm32f0xx_hal_tim.o(i.HAL_TIM_OC_MspInit) for HAL_TIM_OC_MspInit
    stm32f0xx_hal_tim.o(i.HAL_TIM_OC_Init) refers to stm32f0xx_hal_tim.o(i.TIM_Base_SetConfig) for TIM_Base_SetConfig
    stm32f0xx_hal_tim.o(i.HAL_TIM_OC_Start) refers to stm32f0xx_hal_tim.o(i.TIM_CCxChannelCmd) for TIM_CCxChannelCmd
    stm32f0xx_hal_tim.o(i.HAL_TIM_OC_Start_DMA) refers to stm32f0xx_hal_dma.o(i.HAL_DMA_Start_IT) for HAL_DMA_Start_IT
    stm32f0xx_hal_tim.o(i.HAL_TIM_OC_Start_DMA) refers to stm32f0xx_hal_tim.o(i.TIM_CCxChannelCmd) for TIM_CCxChannelCmd
    stm32f0xx_hal_tim.o(i.HAL_TIM_OC_Start_DMA) refers to stm32f0xx_hal_tim.o(i.TIM_DMADelayPulseCplt) for TIM_DMADelayPulseCplt
    stm32f0xx_hal_tim.o(i.HAL_TIM_OC_Start_DMA) refers to stm32f0xx_hal_tim.o(i.TIM_DMAError) for TIM_DMAError
    stm32f0xx_hal_tim.o(i.HAL_TIM_OC_Start_IT) refers to stm32f0xx_hal_tim.o(i.TIM_CCxChannelCmd) for TIM_CCxChannelCmd
    stm32f0xx_hal_tim.o(i.HAL_TIM_OC_Stop) refers to stm32f0xx_hal_tim.o(i.TIM_CCxChannelCmd) for TIM_CCxChannelCmd
    stm32f0xx_hal_tim.o(i.HAL_TIM_OC_Stop_DMA) refers to stm32f0xx_hal_tim.o(i.TIM_CCxChannelCmd) for TIM_CCxChannelCmd
    stm32f0xx_hal_tim.o(i.HAL_TIM_OC_Stop_IT) refers to stm32f0xx_hal_tim.o(i.TIM_CCxChannelCmd) for TIM_CCxChannelCmd
    stm32f0xx_hal_tim.o(i.HAL_TIM_OnePulse_ConfigChannel) refers to stm32f0xx_hal_tim.o(i.TIM_OC1_SetConfig) for TIM_OC1_SetConfig
    stm32f0xx_hal_tim.o(i.HAL_TIM_OnePulse_ConfigChannel) refers to stm32f0xx_hal_tim.o(i.TIM_OC2_SetConfig) for TIM_OC2_SetConfig
    stm32f0xx_hal_tim.o(i.HAL_TIM_OnePulse_ConfigChannel) refers to stm32f0xx_hal_tim.o(i.TIM_TI1_SetConfig) for TIM_TI1_SetConfig
    stm32f0xx_hal_tim.o(i.HAL_TIM_OnePulse_ConfigChannel) refers to stm32f0xx_hal_tim.o(i.TIM_TI2_SetConfig) for TIM_TI2_SetConfig
    stm32f0xx_hal_tim.o(i.HAL_TIM_OnePulse_DeInit) refers to stm32f0xx_hal_tim.o(i.HAL_TIM_OnePulse_MspDeInit) for HAL_TIM_OnePulse_MspDeInit
    stm32f0xx_hal_tim.o(i.HAL_TIM_OnePulse_Init) refers to stm32f0xx_hal_tim.o(i.HAL_TIM_OnePulse_MspInit) for HAL_TIM_OnePulse_MspInit
    stm32f0xx_hal_tim.o(i.HAL_TIM_OnePulse_Init) refers to stm32f0xx_hal_tim.o(i.TIM_Base_SetConfig) for TIM_Base_SetConfig
    stm32f0xx_hal_tim.o(i.HAL_TIM_OnePulse_Start) refers to stm32f0xx_hal_tim.o(i.TIM_CCxChannelCmd) for TIM_CCxChannelCmd
    stm32f0xx_hal_tim.o(i.HAL_TIM_OnePulse_Start_IT) refers to stm32f0xx_hal_tim.o(i.TIM_CCxChannelCmd) for TIM_CCxChannelCmd
    stm32f0xx_hal_tim.o(i.HAL_TIM_OnePulse_Stop) refers to stm32f0xx_hal_tim.o(i.TIM_CCxChannelCmd) for TIM_CCxChannelCmd
    stm32f0xx_hal_tim.o(i.HAL_TIM_OnePulse_Stop_IT) refers to stm32f0xx_hal_tim.o(i.TIM_CCxChannelCmd) for TIM_CCxChannelCmd
    stm32f0xx_hal_tim.o(i.HAL_TIM_PWM_ConfigChannel) refers to stm32f0xx_hal_tim.o(i.TIM_OC1_SetConfig) for TIM_OC1_SetConfig
    stm32f0xx_hal_tim.o(i.HAL_TIM_PWM_ConfigChannel) refers to stm32f0xx_hal_tim.o(i.TIM_OC2_SetConfig) for TIM_OC2_SetConfig
    stm32f0xx_hal_tim.o(i.HAL_TIM_PWM_ConfigChannel) refers to stm32f0xx_hal_tim.o(i.TIM_OC3_SetConfig) for TIM_OC3_SetConfig
    stm32f0xx_hal_tim.o(i.HAL_TIM_PWM_ConfigChannel) refers to stm32f0xx_hal_tim.o(i.TIM_OC4_SetConfig) for TIM_OC4_SetConfig
    stm32f0xx_hal_tim.o(i.HAL_TIM_PWM_DeInit) refers to stm32f0xx_hal_tim.o(i.HAL_TIM_PWM_MspDeInit) for HAL_TIM_PWM_MspDeInit
    stm32f0xx_hal_tim.o(i.HAL_TIM_PWM_Init) refers to stm32f0xx_hal_tim.o(i.HAL_TIM_PWM_MspInit) for HAL_TIM_PWM_MspInit
    stm32f0xx_hal_tim.o(i.HAL_TIM_PWM_Init) refers to stm32f0xx_hal_tim.o(i.TIM_Base_SetConfig) for TIM_Base_SetConfig
    stm32f0xx_hal_tim.o(i.HAL_TIM_PWM_Start) refers to stm32f0xx_hal_tim.o(i.TIM_CCxChannelCmd) for TIM_CCxChannelCmd
    stm32f0xx_hal_tim.o(i.HAL_TIM_PWM_Start_DMA) refers to stm32f0xx_hal_dma.o(i.HAL_DMA_Start_IT) for HAL_DMA_Start_IT
    stm32f0xx_hal_tim.o(i.HAL_TIM_PWM_Start_DMA) refers to stm32f0xx_hal_tim.o(i.TIM_CCxChannelCmd) for TIM_CCxChannelCmd
    stm32f0xx_hal_tim.o(i.HAL_TIM_PWM_Start_DMA) refers to stm32f0xx_hal_tim.o(i.TIM_DMADelayPulseCplt) for TIM_DMADelayPulseCplt
    stm32f0xx_hal_tim.o(i.HAL_TIM_PWM_Start_DMA) refers to stm32f0xx_hal_tim.o(i.TIM_DMAError) for TIM_DMAError
    stm32f0xx_hal_tim.o(i.HAL_TIM_PWM_Start_IT) refers to stm32f0xx_hal_tim.o(i.TIM_CCxChannelCmd) for TIM_CCxChannelCmd
    stm32f0xx_hal_tim.o(i.HAL_TIM_PWM_Stop) refers to stm32f0xx_hal_tim.o(i.TIM_CCxChannelCmd) for TIM_CCxChannelCmd
    stm32f0xx_hal_tim.o(i.HAL_TIM_PWM_Stop_DMA) refers to stm32f0xx_hal_tim.o(i.TIM_CCxChannelCmd) for TIM_CCxChannelCmd
    stm32f0xx_hal_tim.o(i.HAL_TIM_PWM_Stop_IT) refers to stm32f0xx_hal_tim.o(i.TIM_CCxChannelCmd) for TIM_CCxChannelCmd
    stm32f0xx_hal_tim.o(i.HAL_TIM_SlaveConfigSynchronization) refers to stm32f0xx_hal_tim.o(i.TIM_SlaveTimer_SetConfig) for TIM_SlaveTimer_SetConfig
    stm32f0xx_hal_tim.o(i.HAL_TIM_SlaveConfigSynchronization_IT) refers to stm32f0xx_hal_tim.o(i.TIM_SlaveTimer_SetConfig) for TIM_SlaveTimer_SetConfig
    stm32f0xx_hal_tim.o(i.TIM_DMACaptureCplt) refers to stm32f0xx_hal_tim.o(i.HAL_TIM_IC_CaptureCallback) for HAL_TIM_IC_CaptureCallback
    stm32f0xx_hal_tim.o(i.TIM_DMADelayPulseCplt) refers to stm32f0xx_hal_tim.o(i.HAL_TIM_PWM_PulseFinishedCallback) for HAL_TIM_PWM_PulseFinishedCallback
    stm32f0xx_hal_tim.o(i.TIM_DMAError) refers to stm32f0xx_hal_tim.o(i.HAL_TIM_ErrorCallback) for HAL_TIM_ErrorCallback
    stm32f0xx_hal_tim.o(i.TIM_DMAPeriodElapsedCplt) refers to stm32f0xx_hal_tim.o(i.HAL_TIM_PeriodElapsedCallback) for HAL_TIM_PeriodElapsedCallback
    stm32f0xx_hal_tim.o(i.TIM_DMATriggerCplt) refers to stm32f0xx_hal_tim.o(i.HAL_TIM_TriggerCallback) for HAL_TIM_TriggerCallback
    stm32f0xx_hal_tim.o(i.TIM_SlaveTimer_SetConfig) refers to stm32f0xx_hal_tim.o(i.__ARM_common_switch8) for __ARM_common_switch8
    stm32f0xx_hal_tim.o(i.TIM_SlaveTimer_SetConfig) refers to stm32f0xx_hal_tim.o(i.TIM_ETR_SetConfig) for TIM_ETR_SetConfig
    stm32f0xx_hal_tim.o(i.TIM_SlaveTimer_SetConfig) refers to stm32f0xx_hal_tim.o(i.TIM_TI1_ConfigInputStage) for TIM_TI1_ConfigInputStage
    stm32f0xx_hal_tim.o(i.TIM_SlaveTimer_SetConfig) refers to stm32f0xx_hal_tim.o(i.TIM_TI2_ConfigInputStage) for TIM_TI2_ConfigInputStage
    stm32f0xx_hal_tim_ex.o(i.HAL_TIMEx_ConfigCommutationEvent_DMA) refers to stm32f0xx_hal_tim_ex.o(i.TIMEx_DMACommutationCplt) for TIMEx_DMACommutationCplt
    stm32f0xx_hal_tim_ex.o(i.HAL_TIMEx_ConfigCommutationEvent_DMA) refers to stm32f0xx_hal_tim.o(i.TIM_DMAError) for TIM_DMAError
    stm32f0xx_hal_tim_ex.o(i.HAL_TIMEx_HallSensor_DeInit) refers to stm32f0xx_hal_tim_ex.o(i.HAL_TIMEx_HallSensor_MspDeInit) for HAL_TIMEx_HallSensor_MspDeInit
    stm32f0xx_hal_tim_ex.o(i.HAL_TIMEx_HallSensor_Init) refers to stm32f0xx_hal_tim_ex.o(i.HAL_TIMEx_HallSensor_MspInit) for HAL_TIMEx_HallSensor_MspInit
    stm32f0xx_hal_tim_ex.o(i.HAL_TIMEx_HallSensor_Init) refers to stm32f0xx_hal_tim.o(i.TIM_Base_SetConfig) for TIM_Base_SetConfig
    stm32f0xx_hal_tim_ex.o(i.HAL_TIMEx_HallSensor_Init) refers to stm32f0xx_hal_tim.o(i.TIM_TI1_SetConfig) for TIM_TI1_SetConfig
    stm32f0xx_hal_tim_ex.o(i.HAL_TIMEx_HallSensor_Init) refers to stm32f0xx_hal_tim.o(i.TIM_OC2_SetConfig) for TIM_OC2_SetConfig
    stm32f0xx_hal_tim_ex.o(i.HAL_TIMEx_HallSensor_Start) refers to stm32f0xx_hal_tim.o(i.TIM_CCxChannelCmd) for TIM_CCxChannelCmd
    stm32f0xx_hal_tim_ex.o(i.HAL_TIMEx_HallSensor_Start_DMA) refers to stm32f0xx_hal_tim.o(i.TIM_CCxChannelCmd) for TIM_CCxChannelCmd
    stm32f0xx_hal_tim_ex.o(i.HAL_TIMEx_HallSensor_Start_DMA) refers to stm32f0xx_hal_dma.o(i.HAL_DMA_Start_IT) for HAL_DMA_Start_IT
    stm32f0xx_hal_tim_ex.o(i.HAL_TIMEx_HallSensor_Start_DMA) refers to stm32f0xx_hal_tim.o(i.TIM_DMACaptureCplt) for TIM_DMACaptureCplt
    stm32f0xx_hal_tim_ex.o(i.HAL_TIMEx_HallSensor_Start_DMA) refers to stm32f0xx_hal_tim.o(i.TIM_DMAError) for TIM_DMAError
    stm32f0xx_hal_tim_ex.o(i.HAL_TIMEx_HallSensor_Start_IT) refers to stm32f0xx_hal_tim.o(i.TIM_CCxChannelCmd) for TIM_CCxChannelCmd
    stm32f0xx_hal_tim_ex.o(i.HAL_TIMEx_HallSensor_Stop) refers to stm32f0xx_hal_tim.o(i.TIM_CCxChannelCmd) for TIM_CCxChannelCmd
    stm32f0xx_hal_tim_ex.o(i.HAL_TIMEx_HallSensor_Stop_DMA) refers to stm32f0xx_hal_tim.o(i.TIM_CCxChannelCmd) for TIM_CCxChannelCmd
    stm32f0xx_hal_tim_ex.o(i.HAL_TIMEx_HallSensor_Stop_IT) refers to stm32f0xx_hal_tim.o(i.TIM_CCxChannelCmd) for TIM_CCxChannelCmd
    stm32f0xx_hal_tim_ex.o(i.HAL_TIMEx_OCN_Start) refers to stm32f0xx_hal_tim_ex.o(i.TIM_CCxNChannelCmd) for TIM_CCxNChannelCmd
    stm32f0xx_hal_tim_ex.o(i.HAL_TIMEx_OCN_Start_DMA) refers to stm32f0xx_hal_dma.o(i.HAL_DMA_Start_IT) for HAL_DMA_Start_IT
    stm32f0xx_hal_tim_ex.o(i.HAL_TIMEx_OCN_Start_DMA) refers to stm32f0xx_hal_tim_ex.o(i.TIM_CCxNChannelCmd) for TIM_CCxNChannelCmd
    stm32f0xx_hal_tim_ex.o(i.HAL_TIMEx_OCN_Start_DMA) refers to stm32f0xx_hal_tim.o(i.TIM_DMADelayPulseCplt) for TIM_DMADelayPulseCplt
    stm32f0xx_hal_tim_ex.o(i.HAL_TIMEx_OCN_Start_DMA) refers to stm32f0xx_hal_tim.o(i.TIM_DMAError) for TIM_DMAError
    stm32f0xx_hal_tim_ex.o(i.HAL_TIMEx_OCN_Start_IT) refers to stm32f0xx_hal_tim_ex.o(i.TIM_CCxNChannelCmd) for TIM_CCxNChannelCmd
    stm32f0xx_hal_tim_ex.o(i.HAL_TIMEx_OCN_Stop) refers to stm32f0xx_hal_tim_ex.o(i.TIM_CCxNChannelCmd) for TIM_CCxNChannelCmd
    stm32f0xx_hal_tim_ex.o(i.HAL_TIMEx_OCN_Stop_DMA) refers to stm32f0xx_hal_tim_ex.o(i.TIM_CCxNChannelCmd) for TIM_CCxNChannelCmd
    stm32f0xx_hal_tim_ex.o(i.HAL_TIMEx_OCN_Stop_IT) refers to stm32f0xx_hal_tim_ex.o(i.TIM_CCxNChannelCmd) for TIM_CCxNChannelCmd
    stm32f0xx_hal_tim_ex.o(i.HAL_TIMEx_OnePulseN_Start) refers to stm32f0xx_hal_tim_ex.o(i.TIM_CCxNChannelCmd) for TIM_CCxNChannelCmd
    stm32f0xx_hal_tim_ex.o(i.HAL_TIMEx_OnePulseN_Start_IT) refers to stm32f0xx_hal_tim_ex.o(i.TIM_CCxNChannelCmd) for TIM_CCxNChannelCmd
    stm32f0xx_hal_tim_ex.o(i.HAL_TIMEx_OnePulseN_Stop) refers to stm32f0xx_hal_tim_ex.o(i.TIM_CCxNChannelCmd) for TIM_CCxNChannelCmd
    stm32f0xx_hal_tim_ex.o(i.HAL_TIMEx_OnePulseN_Stop_IT) refers to stm32f0xx_hal_tim_ex.o(i.TIM_CCxNChannelCmd) for TIM_CCxNChannelCmd
    stm32f0xx_hal_tim_ex.o(i.HAL_TIMEx_PWMN_Start) refers to stm32f0xx_hal_tim_ex.o(i.TIM_CCxNChannelCmd) for TIM_CCxNChannelCmd
    stm32f0xx_hal_tim_ex.o(i.HAL_TIMEx_PWMN_Start_DMA) refers to stm32f0xx_hal_dma.o(i.HAL_DMA_Start_IT) for HAL_DMA_Start_IT
    stm32f0xx_hal_tim_ex.o(i.HAL_TIMEx_PWMN_Start_DMA) refers to stm32f0xx_hal_tim_ex.o(i.TIM_CCxNChannelCmd) for TIM_CCxNChannelCmd
    stm32f0xx_hal_tim_ex.o(i.HAL_TIMEx_PWMN_Start_DMA) refers to stm32f0xx_hal_tim.o(i.TIM_DMADelayPulseCplt) for TIM_DMADelayPulseCplt
    stm32f0xx_hal_tim_ex.o(i.HAL_TIMEx_PWMN_Start_DMA) refers to stm32f0xx_hal_tim.o(i.TIM_DMAError) for TIM_DMAError
    stm32f0xx_hal_tim_ex.o(i.HAL_TIMEx_PWMN_Start_IT) refers to stm32f0xx_hal_tim_ex.o(i.TIM_CCxNChannelCmd) for TIM_CCxNChannelCmd
    stm32f0xx_hal_tim_ex.o(i.HAL_TIMEx_PWMN_Stop) refers to stm32f0xx_hal_tim_ex.o(i.TIM_CCxNChannelCmd) for TIM_CCxNChannelCmd
    stm32f0xx_hal_tim_ex.o(i.HAL_TIMEx_PWMN_Stop_DMA) refers to stm32f0xx_hal_tim_ex.o(i.TIM_CCxNChannelCmd) for TIM_CCxNChannelCmd
    stm32f0xx_hal_tim_ex.o(i.HAL_TIMEx_PWMN_Stop_IT) refers to stm32f0xx_hal_tim_ex.o(i.TIM_CCxNChannelCmd) for TIM_CCxNChannelCmd
    stm32f0xx_hal_tim_ex.o(i.TIMEx_DMACommutationCplt) refers to stm32f0xx_hal_tim_ex.o(i.HAL_TIMEx_CommutationCallback) for HAL_TIMEx_CommutationCallback
    stm32f0xx_hal_adc.o(i.ADC_ConversionStop) refers to stm32f0xx_hal.o(i.HAL_GetTick) for HAL_GetTick
    stm32f0xx_hal_adc.o(i.ADC_DMAConvCplt) refers to stm32f0xx_hal_adc.o(i.HAL_ADC_ConvCpltCallback) for HAL_ADC_ConvCpltCallback
    stm32f0xx_hal_adc.o(i.ADC_DMAError) refers to stm32f0xx_hal_adc.o(i.HAL_ADC_ErrorCallback) for HAL_ADC_ErrorCallback
    stm32f0xx_hal_adc.o(i.ADC_DMAHalfConvCplt) refers to stm32f0xx_hal_adc.o(i.HAL_ADC_ConvHalfCpltCallback) for HAL_ADC_ConvHalfCpltCallback
    stm32f0xx_hal_adc.o(i.ADC_Disable) refers to stm32f0xx_hal.o(i.HAL_GetTick) for HAL_GetTick
    stm32f0xx_hal_adc.o(i.ADC_Enable) refers to uidiv.o(.text) for __aeabi_uidivmod
    stm32f0xx_hal_adc.o(i.ADC_Enable) refers to stm32f0xx_hal.o(i.HAL_GetTick) for HAL_GetTick
    stm32f0xx_hal_adc.o(i.ADC_Enable) refers to system_stm32f0xx.o(.data) for SystemCoreClock
    stm32f0xx_hal_adc.o(i.HAL_ADC_ConfigChannel) refers to uidiv.o(.text) for __aeabi_uidivmod
    stm32f0xx_hal_adc.o(i.HAL_ADC_ConfigChannel) refers to system_stm32f0xx.o(.data) for SystemCoreClock
    stm32f0xx_hal_adc.o(i.HAL_ADC_DeInit) refers to stm32f0xx_hal_adc.o(i.ADC_ConversionStop) for ADC_ConversionStop
    stm32f0xx_hal_adc.o(i.HAL_ADC_DeInit) refers to stm32f0xx_hal_adc.o(i.ADC_Disable) for ADC_Disable
    stm32f0xx_hal_adc.o(i.HAL_ADC_DeInit) refers to aos_pd_adc.o(i.HAL_ADC_MspDeInit) for HAL_ADC_MspDeInit
    stm32f0xx_hal_adc.o(i.HAL_ADC_IRQHandler) refers to stm32f0xx_hal_adc.o(i.HAL_ADC_ConvCpltCallback) for HAL_ADC_ConvCpltCallback
    stm32f0xx_hal_adc.o(i.HAL_ADC_IRQHandler) refers to stm32f0xx_hal_adc.o(i.HAL_ADC_LevelOutOfWindowCallback) for HAL_ADC_LevelOutOfWindowCallback
    stm32f0xx_hal_adc.o(i.HAL_ADC_IRQHandler) refers to stm32f0xx_hal_adc.o(i.HAL_ADC_ErrorCallback) for HAL_ADC_ErrorCallback
    stm32f0xx_hal_adc.o(i.HAL_ADC_Init) refers to aos_pd_adc.o(i.HAL_ADC_MspInit) for HAL_ADC_MspInit
    stm32f0xx_hal_adc.o(i.HAL_ADC_PollForConversion) refers to stm32f0xx_hal.o(i.HAL_GetTick) for HAL_GetTick
    stm32f0xx_hal_adc.o(i.HAL_ADC_PollForEvent) refers to stm32f0xx_hal.o(i.HAL_GetTick) for HAL_GetTick
    stm32f0xx_hal_adc.o(i.HAL_ADC_Start) refers to stm32f0xx_hal_adc.o(i.ADC_Enable) for ADC_Enable
    stm32f0xx_hal_adc.o(i.HAL_ADC_Start_DMA) refers to stm32f0xx_hal_adc.o(i.ADC_Enable) for ADC_Enable
    stm32f0xx_hal_adc.o(i.HAL_ADC_Start_DMA) refers to stm32f0xx_hal_dma.o(i.HAL_DMA_Start_IT) for HAL_DMA_Start_IT
    stm32f0xx_hal_adc.o(i.HAL_ADC_Start_DMA) refers to stm32f0xx_hal_adc.o(i.ADC_DMAConvCplt) for ADC_DMAConvCplt
    stm32f0xx_hal_adc.o(i.HAL_ADC_Start_DMA) refers to stm32f0xx_hal_adc.o(i.ADC_DMAHalfConvCplt) for ADC_DMAHalfConvCplt
    stm32f0xx_hal_adc.o(i.HAL_ADC_Start_DMA) refers to stm32f0xx_hal_adc.o(i.ADC_DMAError) for ADC_DMAError
    stm32f0xx_hal_adc.o(i.HAL_ADC_Start_IT) refers to stm32f0xx_hal_adc.o(i.ADC_Enable) for ADC_Enable
    stm32f0xx_hal_adc.o(i.HAL_ADC_Stop) refers to stm32f0xx_hal_adc.o(i.ADC_ConversionStop) for ADC_ConversionStop
    stm32f0xx_hal_adc.o(i.HAL_ADC_Stop) refers to stm32f0xx_hal_adc.o(i.ADC_Disable) for ADC_Disable
    stm32f0xx_hal_adc.o(i.HAL_ADC_Stop_DMA) refers to stm32f0xx_hal_adc.o(i.ADC_ConversionStop) for ADC_ConversionStop
    stm32f0xx_hal_adc.o(i.HAL_ADC_Stop_DMA) refers to stm32f0xx_hal_dma.o(i.HAL_DMA_Abort) for HAL_DMA_Abort
    stm32f0xx_hal_adc.o(i.HAL_ADC_Stop_DMA) refers to stm32f0xx_hal_adc.o(i.ADC_Disable) for ADC_Disable
    stm32f0xx_hal_adc.o(i.HAL_ADC_Stop_IT) refers to stm32f0xx_hal_adc.o(i.ADC_ConversionStop) for ADC_ConversionStop
    stm32f0xx_hal_adc.o(i.HAL_ADC_Stop_IT) refers to stm32f0xx_hal_adc.o(i.ADC_Disable) for ADC_Disable
    aos.o(i.AOS_init) refers to stm32f0xx_hal.o(i.HAL_Init) for HAL_Init
    aos.o(i.AOS_init) refers to aos.o(i.SystemClock_Config) for SystemClock_Config
    aos.o(i.AOS_init) refers to aos_pd_gpio.o(i.MX_GPIO_Init) for MX_GPIO_Init
    aos.o(i.AOS_init) refers to aos_pd_usart.o(i.MX_UART_Init) for MX_UART_Init
    aos.o(i.AOS_init) refers to aos.o(i.MX_TIM2_Init) for MX_TIM2_Init
    aos.o(i.AOS_init) refers to aos.o(i.MX_TIM7_Init) for MX_TIM7_Init
    aos.o(i.AOS_init) refers to aos_pd_dma.o(i.MX_DMA_Init) for MX_DMA_Init
    aos.o(i.AOS_init) refers to aos_pd_adc.o(i.MX_ADC_Init) for MX_ADC_Init
    aos.o(i.AOS_init) refers to stm32f0xx_hal_gpio.o(i.HAL_GPIO_WritePin) for HAL_GPIO_WritePin
    aos.o(i.AOS_init) refers to stm32f0xx_hal.o(i.HAL_Delay) for HAL_Delay
    aos.o(i.AOS_init) refers to atoi.o(.text) for atoi
    aos.o(i.AOS_init) refers to rand.o(.text) for srand
    aos.o(i.GetUart) refers to stm32f0xx_hal_tim.o(i.__ARM_common_switch8) for __ARM_common_switch8
    aos.o(i.GetUart) refers to aos_pd_usart.o(.bss) for huart2
    aos.o(i.MX_TIM2_Init) refers to stm32f0xx_hal_tim.o(i.HAL_TIM_Base_Init) for HAL_TIM_Base_Init
    aos.o(i.MX_TIM2_Init) refers to stm32f0xx_hal_tim_ex.o(i.HAL_TIMEx_MasterConfigSynchronization) for HAL_TIMEx_MasterConfigSynchronization
    aos.o(i.MX_TIM2_Init) refers to stm32f0xx_hal_cortex.o(i.HAL_NVIC_SetPriority) for HAL_NVIC_SetPriority
    aos.o(i.MX_TIM2_Init) refers to stm32f0xx_hal_cortex.o(i.HAL_NVIC_EnableIRQ) for HAL_NVIC_EnableIRQ
    aos.o(i.MX_TIM2_Init) refers to aos.o(.bss) for htim2
    aos.o(i.MX_TIM7_Init) refers to stm32f0xx_hal_tim.o(i.HAL_TIM_Base_Init) for HAL_TIM_Base_Init
    aos.o(i.MX_TIM7_Init) refers to stm32f0xx_hal_tim_ex.o(i.HAL_TIMEx_MasterConfigSynchronization) for HAL_TIMEx_MasterConfigSynchronization
    aos.o(i.MX_TIM7_Init) refers to aos.o(.bss) for htim7
    aos.o(i.SystemClock_Config) refers to stm32f0xx_hal_rcc.o(i.HAL_RCC_OscConfig) for HAL_RCC_OscConfig
    aos.o(i.SystemClock_Config) refers to stm32f0xx_hal_rcc.o(i.HAL_RCC_ClockConfig) for HAL_RCC_ClockConfig
    aos.o(i.SystemClock_Config) refers to stm32f0xx_hal_rcc_ex.o(i.HAL_RCCEx_PeriphCLKConfig) for HAL_RCCEx_PeriphCLKConfig
    aos.o(i.SystemClock_Config) refers to stm32f0xx_hal_cortex.o(i.HAL_NVIC_SetPriority) for HAL_NVIC_SetPriority
    aos.o(i.startMicroDelay) refers to port.o(i.vPortEnterCritical) for vPortEnterCritical
    aos.o(i.startMicroDelay) refers to stm32f0xx_hal_tim.o(i.HAL_TIM_Base_Start) for HAL_TIM_Base_Start
    aos.o(i.startMicroDelay) refers to stm32f0xx_hal_tim.o(i.HAL_TIM_Base_Stop) for HAL_TIM_Base_Stop
    aos.o(i.startMicroDelay) refers to port.o(i.vPortExitCritical) for vPortExitCritical
    aos.o(i.startMicroDelay) refers to aos.o(.bss) for htim7
    aos.o(i.startPerEvent) refers to stm32f0xx_hal_tim.o(i.HAL_TIM_Base_Init) for HAL_TIM_Base_Init
    aos.o(i.startPerEvent) refers to stm32f0xx_hal_tim.o(i.HAL_TIM_Base_Start_IT) for HAL_TIM_Base_Start_IT
    aos.o(i.startPerEvent) refers to aos.o(.bss) for htim2
    aos_pd_usart.o(i.HAL_UART_MspInit) refers to stm32f0xx_hal_gpio.o(i.HAL_GPIO_Init) for HAL_GPIO_Init
    aos_pd_usart.o(i.HAL_UART_MspInit) refers to stm32f0xx_hal_cortex.o(i.HAL_NVIC_SetPriority) for HAL_NVIC_SetPriority
    aos_pd_usart.o(i.HAL_UART_MspInit) refers to stm32f0xx_hal_cortex.o(i.HAL_NVIC_EnableIRQ) for HAL_NVIC_EnableIRQ
    aos_pd_usart.o(i.MX_UART_Init) refers to aos_pd_usart.o(i.MX_USART2_UART_Init) for MX_USART2_UART_Init
    aos_pd_usart.o(i.MX_UART_Init) refers to aos_pd_usart.o(i.MX_USART3_UART_Init) for MX_USART3_UART_Init
    aos_pd_usart.o(i.MX_UART_Init) refers to aos_pd_usart.o(i.MX_USART7_UART_Init) for MX_USART7_UART_Init
    aos_pd_usart.o(i.MX_UART_Init) refers to aos_pd_usart.o(i.MX_USART8_UART_Init) for MX_USART8_UART_Init
    aos_pd_usart.o(i.MX_UART_Init) refers to aos_pd_usart.o(i.MX_USART4_UART_Init) for MX_USART4_UART_Init
    aos_pd_usart.o(i.MX_UART_Init) refers to aos_pd_usart.o(i.MX_USART1_UART_Init) for MX_USART1_UART_Init
    aos_pd_usart.o(i.MX_USART1_UART_Init) refers to stm32f0xx_hal_uart.o(i.HAL_UART_Init) for HAL_UART_Init
    aos_pd_usart.o(i.MX_USART1_UART_Init) refers to aos_pd_usart.o(.bss) for huart1
    aos_pd_usart.o(i.MX_USART2_UART_Init) refers to stm32f0xx_hal_uart.o(i.HAL_UART_Init) for HAL_UART_Init
    aos_pd_usart.o(i.MX_USART2_UART_Init) refers to aos_pd_usart.o(.bss) for huart2
    aos_pd_usart.o(i.MX_USART3_UART_Init) refers to stm32f0xx_hal_uart.o(i.HAL_UART_Init) for HAL_UART_Init
    aos_pd_usart.o(i.MX_USART3_UART_Init) refers to aos_pd_usart.o(.bss) for huart3
    aos_pd_usart.o(i.MX_USART4_UART_Init) refers to stm32f0xx_hal_uart.o(i.HAL_UART_Init) for HAL_UART_Init
    aos_pd_usart.o(i.MX_USART4_UART_Init) refers to aos_pd_usart.o(.bss) for huart4
    aos_pd_usart.o(i.MX_USART7_UART_Init) refers to stm32f0xx_hal_uart.o(i.HAL_UART_Init) for HAL_UART_Init
    aos_pd_usart.o(i.MX_USART7_UART_Init) refers to aos_pd_usart.o(.bss) for huart7
    aos_pd_usart.o(i.MX_USART8_UART_Init) refers to stm32f0xx_hal_uart.o(i.HAL_UART_Init) for HAL_UART_Init
    aos_pd_usart.o(i.MX_USART8_UART_Init) refers to aos_pd_usart.o(.bss) for huart8
    aos_pd_usart.o(i.readPxITMutex) refers to cmsis_os.o(i.osSemaphoreWait) for osSemaphoreWait
    aos_pd_usart.o(i.readPxITMutex) refers to aos.o(i.GetUart) for GetUart
    aos_pd_usart.o(i.readPxITMutex) refers to stm32f0xx_hal_uart.o(i.HAL_UART_Receive_IT) for HAL_UART_Receive_IT
    aos_pd_usart.o(i.readPxITMutex) refers to freertos.o(.bss) for PxSemaphoreHandle
    aos_pd_usart.o(i.readPxMutex) refers to cmsis_os.o(i.osSemaphoreWait) for osSemaphoreWait
    aos_pd_usart.o(i.readPxMutex) refers to aos.o(i.GetUart) for GetUart
    aos_pd_usart.o(i.readPxMutex) refers to stm32f0xx_hal_uart.o(i.HAL_UART_Receive) for HAL_UART_Receive
    aos_pd_usart.o(i.readPxMutex) refers to cmsis_os.o(i.osSemaphoreRelease) for osSemaphoreRelease
    aos_pd_usart.o(i.readPxMutex) refers to freertos.o(.bss) for PxSemaphoreHandle
    aos_pd_usart.o(i.writePxITMutex) refers to cmsis_os.o(i.osSemaphoreWait) for osSemaphoreWait
    aos_pd_usart.o(i.writePxITMutex) refers to aos.o(i.GetUart) for GetUart
    aos_pd_usart.o(i.writePxITMutex) refers to stm32f0xx_hal_uart.o(i.HAL_UART_Transmit_IT) for HAL_UART_Transmit_IT
    aos_pd_usart.o(i.writePxITMutex) refers to freertos.o(.bss) for PxSemaphoreHandle
    aos_pd_usart.o(i.writePxMutex) refers to cmsis_os.o(i.osSemaphoreWait) for osSemaphoreWait
    aos_pd_usart.o(i.writePxMutex) refers to aos.o(i.GetUart) for GetUart
    aos_pd_usart.o(i.writePxMutex) refers to stm32f0xx_hal_uart.o(i.HAL_UART_Transmit) for HAL_UART_Transmit
    aos_pd_usart.o(i.writePxMutex) refers to cmsis_os.o(i.osSemaphoreRelease) for osSemaphoreRelease
    aos_pd_usart.o(i.writePxMutex) refers to freertos.o(.bss) for PxSemaphoreHandle
    aos_pd_gpio.o(i.IND_LED_Init) refers to stm32f0xx_hal_gpio.o(i.HAL_GPIO_Init) for HAL_GPIO_Init
    aos_pd_gpio.o(i.MX_GPIO_Init) refers to aos_pd_gpio.o(i.IND_LED_Init) for IND_LED_Init
    aos_pd_adc.o(i.HAL_ADC_MspDeInit) refers to stm32f0xx_hal_gpio.o(i.HAL_GPIO_DeInit) for HAL_GPIO_DeInit
    aos_pd_adc.o(i.HAL_ADC_MspInit) refers to stm32f0xx_hal_gpio.o(i.HAL_GPIO_Init) for HAL_GPIO_Init
    aos_pd_adc.o(i.MX_ADC_Init) refers to stm32f0xx_hal_adc.o(i.HAL_ADC_Init) for HAL_ADC_Init
    aos_pd_adc.o(i.MX_ADC_Init) refers to stm32f0xx_hal_adc.o(i.HAL_ADC_ConfigChannel) for HAL_ADC_ConfigChannel
    aos_pd_adc.o(i.MX_ADC_Init) refers to aos_pd_adc.o(.bss) for hadc
    aos_pd_adc.o(i.SamplePD) refers to stm32f0xx_hal_adc.o(i.HAL_ADC_Start) for HAL_ADC_Start
    aos_pd_adc.o(i.SamplePD) refers to stm32f0xx_hal_adc.o(i.HAL_ADC_PollForConversion) for HAL_ADC_PollForConversion
    aos_pd_adc.o(i.SamplePD) refers to stm32f0xx_hal_adc.o(i.HAL_ADC_GetValue) for HAL_ADC_GetValue
    aos_pd_adc.o(i.SamplePD) refers to stm32f0xx_hal_adc.o(i.HAL_ADC_Stop) for HAL_ADC_Stop
    aos_pd_adc.o(i.SamplePD) refers to aos_pd_adc.o(.bss) for hadc
    aos_pd_dma.o(i.DownlinkDMA1_Init) refers to stm32f0xx_hal_dma.o(i.HAL_DMA_Init) for HAL_DMA_Init
    aos_pd_dma.o(i.DownlinkDMA1_Init) refers to aos_pd_dma.o(.bss) for downlinkDMA1
    aos_pd_dma.o(i.DownlinkDMA1_Setup) refers to stm32f0xx_hal_uart.o(i.HAL_UART_Init) for HAL_UART_Init
    aos_pd_dma.o(i.DownlinkDMA1_Setup) refers to stm32f0xx_hal_cortex.o(i.HAL_NVIC_SetPriority) for HAL_NVIC_SetPriority
    aos_pd_dma.o(i.DownlinkDMA1_Setup) refers to stm32f0xx_hal_cortex.o(i.HAL_NVIC_EnableIRQ) for HAL_NVIC_EnableIRQ
    aos_pd_dma.o(i.DownlinkDMA1_Setup) refers to stm32f0xx_hal_uart.o(i.HAL_UART_Receive_DMA) for HAL_UART_Receive_DMA
    aos_pd_dma.o(i.DownlinkDMA1_Setup) refers to aos_pd_dma.o(.bss) for downlinkDMA1
    aos_pd_dma.o(i.DownlinkDMA1_Setup) refers to main.o(.data) for dataBuffer
    aos_pd_dma.o(i.DownlinkDMA2_Init) refers to stm32f0xx_hal_dma.o(i.HAL_DMA_Init) for HAL_DMA_Init
    aos_pd_dma.o(i.DownlinkDMA2_Init) refers to aos_pd_dma.o(.bss) for downlinkDMA2
    aos_pd_dma.o(i.DownlinkDMA2_Setup) refers to stm32f0xx_hal_uart.o(i.HAL_UART_Init) for HAL_UART_Init
    aos_pd_dma.o(i.DownlinkDMA2_Setup) refers to stm32f0xx_hal_cortex.o(i.HAL_NVIC_SetPriority) for HAL_NVIC_SetPriority
    aos_pd_dma.o(i.DownlinkDMA2_Setup) refers to stm32f0xx_hal_cortex.o(i.HAL_NVIC_EnableIRQ) for HAL_NVIC_EnableIRQ
    aos_pd_dma.o(i.DownlinkDMA2_Setup) refers to stm32f0xx_hal_uart.o(i.HAL_UART_Receive_DMA) for HAL_UART_Receive_DMA
    aos_pd_dma.o(i.DownlinkDMA2_Setup) refers to aos_pd_dma.o(.bss) for downlinkDMA2
    aos_pd_dma.o(i.DownlinkDMA2_Setup) refers to main.o(.data) for dataBuffer
    aos_pd_dma.o(i.DownlinkDMA3_Init) refers to stm32f0xx_hal_dma.o(i.HAL_DMA_Init) for HAL_DMA_Init
    aos_pd_dma.o(i.DownlinkDMA3_Init) refers to aos_pd_dma.o(.bss) for downlinkDMA3
    aos_pd_dma.o(i.DownlinkDMA3_Setup) refers to stm32f0xx_hal_uart.o(i.HAL_UART_Init) for HAL_UART_Init
    aos_pd_dma.o(i.DownlinkDMA3_Setup) refers to stm32f0xx_hal_cortex.o(i.HAL_NVIC_SetPriority) for HAL_NVIC_SetPriority
    aos_pd_dma.o(i.DownlinkDMA3_Setup) refers to stm32f0xx_hal_cortex.o(i.HAL_NVIC_EnableIRQ) for HAL_NVIC_EnableIRQ
    aos_pd_dma.o(i.DownlinkDMA3_Setup) refers to stm32f0xx_hal_uart.o(i.HAL_UART_Receive_DMA) for HAL_UART_Receive_DMA
    aos_pd_dma.o(i.DownlinkDMA3_Setup) refers to aos_pd_dma.o(.bss) for downlinkDMA3
    aos_pd_dma.o(i.DownlinkDMA3_Setup) refers to main.o(.data) for dataBuffer
    aos_pd_dma.o(i.MX_DMA_Init) refers to aos_pd_dma.o(i.DownlinkDMA1_Init) for DownlinkDMA1_Init
    aos_pd_dma.o(i.MX_DMA_Init) refers to aos_pd_dma.o(i.DownlinkDMA2_Init) for DownlinkDMA2_Init
    aos_pd_dma.o(i.MX_DMA_Init) refers to aos_pd_dma.o(i.DownlinkDMA3_Init) for DownlinkDMA3_Init
    aos_pd_dma.o(i.MX_DMA_Init) refers to aos_pd_dma.o(i.UplinkDMA1_Init) for UplinkDMA1_Init
    aos_pd_dma.o(i.MX_DMA_Init) refers to aos_pd_dma.o(i.UplinkDMA2_Init) for UplinkDMA2_Init
    aos_pd_dma.o(i.UplinkDMA1_Init) refers to stm32f0xx_hal_dma.o(i.HAL_DMA_Init) for HAL_DMA_Init
    aos_pd_dma.o(i.UplinkDMA1_Init) refers to aos_pd_dma.o(.bss) for uplinkDMA1
    aos_pd_dma.o(i.UplinkDMA1_Setup) refers to stm32f0xx_hal_uart.o(i.HAL_UART_Init) for HAL_UART_Init
    aos_pd_dma.o(i.UplinkDMA1_Setup) refers to stm32f0xx_hal_cortex.o(i.HAL_NVIC_SetPriority) for HAL_NVIC_SetPriority
    aos_pd_dma.o(i.UplinkDMA1_Setup) refers to stm32f0xx_hal_cortex.o(i.HAL_NVIC_EnableIRQ) for HAL_NVIC_EnableIRQ
    aos_pd_dma.o(i.UplinkDMA1_Setup) refers to stm32f0xx_hal_uart.o(i.HAL_UART_Receive_DMA) for HAL_UART_Receive_DMA
    aos_pd_dma.o(i.UplinkDMA1_Setup) refers to aos_pd_dma.o(.bss) for uplinkDMA1
    aos_pd_dma.o(i.UplinkDMA2_Init) refers to stm32f0xx_hal_dma.o(i.HAL_DMA_Init) for HAL_DMA_Init
    aos_pd_dma.o(i.UplinkDMA2_Init) refers to aos_pd_dma.o(.bss) for uplinkDMA2
    aos_pd_dma.o(i.UplinkDMA2_Setup) refers to stm32f0xx_hal_uart.o(i.HAL_UART_Init) for HAL_UART_Init
    aos_pd_dma.o(i.UplinkDMA2_Setup) refers to stm32f0xx_hal_cortex.o(i.HAL_NVIC_SetPriority) for HAL_NVIC_SetPriority
    aos_pd_dma.o(i.UplinkDMA2_Setup) refers to stm32f0xx_hal_cortex.o(i.HAL_NVIC_EnableIRQ) for HAL_NVIC_EnableIRQ
    aos_pd_dma.o(i.UplinkDMA2_Setup) refers to stm32f0xx_hal_uart.o(i.HAL_UART_Receive_DMA) for HAL_UART_Receive_DMA
    aos_pd_dma.o(i.UplinkDMA2_Setup) refers to aos_pd_dma.o(.bss) for uplinkDMA2
    aos_cli.o(i.bootloaderUpdateCommand) refers to printfa.o(i.__0sprintf) for __2sprintf
    aos_cli.o(i.bootloaderUpdateCommand) refers to strcat.o(.text) for strcat
    aos_cli.o(i.bootloaderUpdateCommand) refers to strlen.o(.text) for strlen
    aos_cli.o(i.bootloaderUpdateCommand) refers to aos_pd_usart.o(i.writePxMutex) for writePxMutex
    aos_cli.o(i.bootloaderUpdateCommand) refers to aos.o(.data) for myID
    aos_cli.o(i.bootloaderUpdateCommand) refers to aos_cli.o(.data) for pcMessage
    aos_cli.o(i.bootloaderUpdateCommand) refers to aos_pd_usart.o(.data) for PcPort
    aos_cli.o(i.pingCommand) refers to printfa.o(i.__0sprintf) for __2sprintf
    aos_cli.o(i.pingCommand) refers to stm32f0xx_hal_gpio.o(i.HAL_GPIO_WritePin) for HAL_GPIO_WritePin
    aos_cli.o(i.pingCommand) refers to cmsis_os.o(i.osDelay) for osDelay
    aos_cli.o(i.pingCommand) refers to aos.o(.data) for myID
    aos_cli.o(i.prvRunTimeStatsCommand) refers to strcpy.o(.text) for strcpy
    aos_cli.o(i.prvRunTimeStatsCommand) refers to strlen.o(.text) for strlen
    aos_cli.o(i.prvRunTimeStatsCommand) refers to tasks.o(privileged_functions) for vTaskGetRunTimeStats
    aos_cli.o(i.prvRunTimeStatsCommand) refers to aos_cli.o(.conststring) for .conststring
    aos_cli.o(i.prvTaskStatsCommand) refers to strcpy.o(.text) for strcpy
    aos_cli.o(i.prvTaskStatsCommand) refers to strlen.o(.text) for strlen
    aos_cli.o(i.prvTaskStatsCommand) refers to tasks.o(privileged_functions) for vTaskList
    aos_cli.o(i.prvTaskStatsCommand) refers to aos_cli.o(.conststring) for .conststring
    aos_cli.o(i.sampleCommand) refers to aos_pd_adc.o(i.SamplePD) for SamplePD
    aos_cli.o(i.sampleCommand) refers to printfa.o(i.__0sprintf) for __2sprintf
    aos_cli.o(i.sampleCommand) refers to aos.o(.data) for myID
    aos_cli.o(i.sampleCommand) refers to aos_cli.o(.data) for pcMessage
    aos_cli.o(i.setCommand) refers to freertos_cli.o(i.FreeRTOS_CLIGetParameter) for FreeRTOS_CLIGetParameter
    aos_cli.o(i.setCommand) refers to strncmp.o(.text) for strncmp
    aos_cli.o(i.setCommand) refers to strcmp.o(.text) for strcmp
    aos_cli.o(i.setCommand) refers to strcpy.o(.text) for strcpy
    aos_cli.o(i.setCommand) refers to main.o(.data) for ledStatus
    aos_cli.o(i.setCommand) refers to aos_cli.o(.data) for pcMode0
    aos_cli.o(i.streamCommand) refers to freertos_cli.o(i.FreeRTOS_CLIGetParameter) for FreeRTOS_CLIGetParameter
    aos_cli.o(i.streamCommand) refers to strcmp.o(.text) for strcmp
    aos_cli.o(i.streamCommand) refers to atol.o(.text) for atol
    aos_cli.o(i.streamCommand) refers to atof.o(i.atof) for atof
    aos_cli.o(i.streamCommand) refers to d2f.o(.text) for __aeabi_d2f
    aos_cli.o(i.streamCommand) refers to cfcmple.o(.text) for __aeabi_cfcmpeq
    aos_cli.o(i.streamCommand) refers to f2d.o(.text) for __aeabi_f2d
    aos_cli.o(i.streamCommand) refers to printfa.o(i.__0sprintf) for __2sprintf
    aos_cli.o(i.streamCommand) refers to main.o(i.StreamSetup) for StreamSetup
    aos_cli.o(i.streamCommand) refers to main.o(.data) for streamLoose
    aos_cli.o(i.streamCommand) refers to aos_cli.o(.data) for pcMessage
    aos_cli.o(i.streamTestCommand) refers to freertos_cli.o(i.FreeRTOS_CLIGetParameter) for FreeRTOS_CLIGetParameter
    aos_cli.o(i.streamTestCommand) refers to strcmp.o(.text) for strcmp
    aos_cli.o(i.streamTestCommand) refers to atol.o(.text) for atol
    aos_cli.o(i.streamTestCommand) refers to atof.o(i.atof) for atof
    aos_cli.o(i.streamTestCommand) refers to d2f.o(.text) for __aeabi_d2f
    aos_cli.o(i.streamTestCommand) refers to cfcmple.o(.text) for __aeabi_cfcmpeq
    aos_cli.o(i.streamTestCommand) refers to f2d.o(.text) for __aeabi_f2d
    aos_cli.o(i.streamTestCommand) refers to printfa.o(i.__0sprintf) for __2sprintf
    aos_cli.o(i.streamTestCommand) refers to main.o(i.StreamSetup) for StreamSetup
    aos_cli.o(i.streamTestCommand) refers to main.o(.data) for streamTest
    aos_cli.o(i.streamTestCommand) refers to aos_cli.o(.data) for pcMessage
    aos_cli.o(i.vRegisterCLICommands) refers to freertos_cli.o(i.FreeRTOS_CLIRegisterCommand) for FreeRTOS_CLIRegisterCommand
    aos_cli.o(i.vRegisterCLICommands) refers to aos_cli.o(.constdata) for prvTaskStatsCommandDefinition
    aos_cli.o(.constdata) refers to aos_cli.o(.conststring) for .conststring
    aos_cli.o(.constdata) refers to aos_cli.o(i.prvRunTimeStatsCommand) for prvRunTimeStatsCommand
    aos_cli.o(.constdata) refers to aos_cli.o(i.prvTaskStatsCommand) for prvTaskStatsCommand
    aos_cli.o(.constdata) refers to aos_cli.o(i.pingCommand) for pingCommand
    aos_cli.o(.constdata) refers to aos_cli.o(i.sampleCommand) for sampleCommand
    aos_cli.o(.constdata) refers to aos_cli.o(i.bootloaderUpdateCommand) for bootloaderUpdateCommand
    aos_cli.o(.constdata) refers to aos_cli.o(i.streamCommand) for streamCommand
    aos_cli.o(.constdata) refers to aos_cli.o(i.streamTestCommand) for streamTestCommand
    aos_cli.o(.constdata) refers to aos_cli.o(i.setCommand) for setCommand
    aos_cli.o(.data) refers to aos_cli.o(.conststring) for .conststring
    event_groups.o(i.vEventGroupClearBitsCallback) refers to event_groups.o(privileged_functions) for xEventGroupClearBits
    event_groups.o(i.vEventGroupDelete) refers to tasks.o(privileged_functions) for vTaskSuspendAll
    event_groups.o(i.vEventGroupDelete) refers to heap_4.o(privileged_functions) for vPortFree
    event_groups.o(i.vEventGroupSetBitsCallback) refers to event_groups.o(privileged_functions) for xEventGroupSetBits
    event_groups.o(i.xEventGroupGetBitsFromISR) refers to port.o(.emb_text) for ulSetInterruptMaskFromISR
    event_groups.o(privileged_functions) refers to heap_4.o(privileged_functions) for pvPortMalloc
    event_groups.o(privileged_functions) refers to list.o(i.vListInitialise) for vListInitialise
    event_groups.o(privileged_functions) refers to tasks.o(privileged_functions) for vTaskSuspendAll
    event_groups.o(privileged_functions) refers to port.o(i.vPortYield) for vPortYield
    event_groups.o(privileged_functions) refers to port.o(i.vPortEnterCritical) for vPortEnterCritical
    event_groups.o(privileged_functions) refers to port.o(i.vPortExitCritical) for vPortExitCritical
    event_groups.o(privileged_functions) refers to event_groups.o(i.prvTestWaitCondition) for prvTestWaitCondition
    queue.o(privileged_functions) refers to port.o(i.vPortEnterCritical) for vPortEnterCritical
    queue.o(privileged_functions) refers to tasks.o(privileged_functions) for xTaskRemoveFromEventList
    queue.o(privileged_functions) refers to port.o(i.vPortYield) for vPortYield
    queue.o(privileged_functions) refers to list.o(i.vListInitialise) for vListInitialise
    queue.o(privileged_functions) refers to port.o(i.vPortExitCritical) for vPortExitCritical
    queue.o(privileged_functions) refers to heap_4.o(privileged_functions) for pvPortMalloc
    queue.o(privileged_functions) refers to memcpya.o(.text) for __aeabi_memcpy
    queue.o(privileged_functions) refers to tasks.o(i.pvTaskIncrementMutexHeldCount) for pvTaskIncrementMutexHeldCount
    queue.o(privileged_functions) refers to port.o(.emb_text) for ulSetInterruptMaskFromISR
    queue.o(privileged_functions) refers to queue.o(.bss) for xQueueRegistry
    port.o(.emb_text) refers to tasks.o(privileged_data) for pxCurrentTCB
    port.o(.emb_text) refers to tasks.o(privileged_functions) for vTaskSwitchContext
    port.o(i.prvSetupTimerInterrupt) refers to uidiv.o(.text) for __aeabi_uidivmod
    port.o(i.prvSetupTimerInterrupt) refers to system_stm32f0xx.o(.data) for SystemCoreClock
    port.o(i.prvTaskExitError) refers to port.o(.data) for uxCriticalNesting
    port.o(i.vPortEnterCritical) refers to port.o(.data) for uxCriticalNesting
    port.o(i.vPortExitCritical) refers to port.o(.data) for uxCriticalNesting
    port.o(i.xPortSysTickHandler) refers to port.o(.emb_text) for ulSetInterruptMaskFromISR
    port.o(i.xPortSysTickHandler) refers to tasks.o(privileged_functions) for xTaskIncrementTick
    port.o(privileged_functions) refers to port.o(i.prvSetupTimerInterrupt) for prvSetupTimerInterrupt
    port.o(privileged_functions) refers to port.o(.emb_text) for __asm___6_port_c_39a90d8d__prvPortStartFirstTask
    port.o(privileged_functions) refers to port.o(i.prvTaskExitError) for prvTaskExitError
    port.o(privileged_functions) refers to port.o(.data) for uxCriticalNesting
    tasks.o(i.prvIdleTask) refers to tasks.o(privileged_functions) for prvCheckTasksWaitingTermination
    tasks.o(i.prvIdleTask) refers to port.o(i.vPortYield) for vPortYield
    tasks.o(i.prvIdleTask) refers to tasks.o(privileged_data) for pxReadyTasksLists
    tasks.o(i.prvResetNextTaskUnblockTime) refers to tasks.o(privileged_data) for pxDelayedTaskList
    tasks.o(i.prvWriteNameToBuffer) refers to strcpy.o(.text) for strcpy
    tasks.o(i.prvWriteNameToBuffer) refers to strlen.o(.text) for strlen
    tasks.o(i.pvTaskIncrementMutexHeldCount) refers to tasks.o(privileged_data) for pxCurrentTCB
    tasks.o(i.ulTaskNotifyTake) refers to port.o(i.vPortEnterCritical) for vPortEnterCritical
    tasks.o(i.ulTaskNotifyTake) refers to list.o(i.uxListRemove) for uxListRemove
    tasks.o(i.ulTaskNotifyTake) refers to list.o(i.vListInsertEnd) for vListInsertEnd
    tasks.o(i.ulTaskNotifyTake) refers to tasks.o(privileged_functions) for prvAddCurrentTaskToDelayedList
    tasks.o(i.ulTaskNotifyTake) refers to port.o(i.vPortYield) for vPortYield
    tasks.o(i.ulTaskNotifyTake) refers to port.o(i.vPortExitCritical) for vPortExitCritical
    tasks.o(i.ulTaskNotifyTake) refers to tasks.o(privileged_data) for pxCurrentTCB
    tasks.o(i.uxTaskGetSystemState) refers to tasks.o(privileged_functions) for vTaskSuspendAll
    tasks.o(i.uxTaskGetSystemState) refers to freertos.o(i.ulMainGetRunTimeCounterValue) for ulMainGetRunTimeCounterValue
    tasks.o(i.uxTaskGetSystemState) refers to tasks.o(privileged_data) for uxCurrentNumberOfTasks
    tasks.o(i.vTaskNotifyGiveFromISR) refers to port.o(.emb_text) for ulSetInterruptMaskFromISR
    tasks.o(i.vTaskNotifyGiveFromISR) refers to list.o(i.uxListRemove) for uxListRemove
    tasks.o(i.vTaskNotifyGiveFromISR) refers to list.o(i.vListInsertEnd) for vListInsertEnd
    tasks.o(i.vTaskNotifyGiveFromISR) refers to tasks.o(privileged_data) for uxSchedulerSuspended
    tasks.o(i.xTaskGenericNotify) refers to port.o(i.vPortEnterCritical) for vPortEnterCritical
    tasks.o(i.xTaskGenericNotify) refers to stm32f0xx_hal_tim.o(i.__ARM_common_switch8) for __ARM_common_switch8
    tasks.o(i.xTaskGenericNotify) refers to list.o(i.uxListRemove) for uxListRemove
    tasks.o(i.xTaskGenericNotify) refers to list.o(i.vListInsertEnd) for vListInsertEnd
    tasks.o(i.xTaskGenericNotify) refers to port.o(i.vPortYield) for vPortYield
    tasks.o(i.xTaskGenericNotify) refers to port.o(i.vPortExitCritical) for vPortExitCritical
    tasks.o(i.xTaskGenericNotify) refers to tasks.o(privileged_data) for uxTopReadyPriority
    tasks.o(i.xTaskNotifyFromISR) refers to port.o(.emb_text) for ulSetInterruptMaskFromISR
    tasks.o(i.xTaskNotifyFromISR) refers to stm32f0xx_hal_tim.o(i.__ARM_common_switch8) for __ARM_common_switch8
    tasks.o(i.xTaskNotifyFromISR) refers to list.o(i.uxListRemove) for uxListRemove
    tasks.o(i.xTaskNotifyFromISR) refers to list.o(i.vListInsertEnd) for vListInsertEnd
    tasks.o(i.xTaskNotifyFromISR) refers to tasks.o(privileged_data) for uxSchedulerSuspended
    tasks.o(i.xTaskNotifyWait) refers to port.o(i.vPortEnterCritical) for vPortEnterCritical
    tasks.o(i.xTaskNotifyWait) refers to list.o(i.uxListRemove) for uxListRemove
    tasks.o(i.xTaskNotifyWait) refers to list.o(i.vListInsertEnd) for vListInsertEnd
    tasks.o(i.xTaskNotifyWait) refers to tasks.o(privileged_functions) for prvAddCurrentTaskToDelayedList
    tasks.o(i.xTaskNotifyWait) refers to port.o(i.vPortYield) for vPortYield
    tasks.o(i.xTaskNotifyWait) refers to port.o(i.vPortExitCritical) for vPortExitCritical
    tasks.o(i.xTaskNotifyWait) refers to tasks.o(privileged_data) for pxCurrentTCB
    tasks.o(privileged_functions) refers to list.o(i.vListInitialise) for vListInitialise
    tasks.o(privileged_functions) refers to list.o(i.vListInitialiseItem) for vListInitialiseItem
    tasks.o(privileged_functions) refers to heap_4.o(privileged_functions) for pvPortMalloc
    tasks.o(privileged_functions) refers to memseta.o(.text) for __aeabi_memset
    tasks.o(privileged_functions) refers to port.o(privileged_functions) for pxPortInitialiseStack
    tasks.o(privileged_functions) refers to port.o(i.vPortEnterCritical) for vPortEnterCritical
    tasks.o(privileged_functions) refers to list.o(i.vListInsertEnd) for vListInsertEnd
    tasks.o(privileged_functions) refers to port.o(i.vPortExitCritical) for vPortExitCritical
    tasks.o(privileged_functions) refers to port.o(i.vPortYield) for vPortYield
    tasks.o(privileged_functions) refers to list.o(i.uxListRemove) for uxListRemove
    tasks.o(privileged_functions) refers to tasks.o(i.prvResetNextTaskUnblockTime) for prvResetNextTaskUnblockTime
    tasks.o(privileged_functions) refers to tasks.o(privileged_data) for pxReadyTasksLists
    tasks.o(privileged_functions) refers to list.o(i.vListInsert) for vListInsert
    tasks.o(privileged_functions) refers to port.o(.emb_text) for ulSetInterruptMaskFromISR
    tasks.o(privileged_functions) refers to freertos.o(i.ulMainGetRunTimeCounterValue) for ulMainGetRunTimeCounterValue
    tasks.o(privileged_functions) refers to stm32f0xx_it.o(i.vApplicationStackOverflowHook) for vApplicationStackOverflowHook
    tasks.o(privileged_functions) refers to memcmp.o(.text) for memcmp
    tasks.o(privileged_functions) refers to tasks.o(.constdata) for ucExpectedStackBytes
    tasks.o(privileged_functions) refers to freertos.o(i.vMainConfigureTimerForRunTimeStats) for vMainConfigureTimerForRunTimeStats
    tasks.o(privileged_functions) refers to tasks.o(i.prvIdleTask) for prvIdleTask
    tasks.o(privileged_functions) refers to tasks.o(i.uxTaskGetSystemState) for uxTaskGetSystemState
    tasks.o(privileged_functions) refers to tasks.o(i.prvWriteNameToBuffer) for prvWriteNameToBuffer
    tasks.o(privileged_functions) refers to printfa.o(i.__0sprintf) for __2sprintf
    tasks.o(privileged_functions) refers to strlen.o(.text) for strlen
    tasks.o(privileged_functions) refers to uidiv.o(.text) for __aeabi_uidivmod
    heap_4.o(i.prvHeapInit) refers to heap_4.o(.bss) for ucHeap
    heap_4.o(i.prvHeapInit) refers to heap_4.o(.data) for xStart
    heap_4.o(i.prvInsertBlockIntoFreeList) refers to heap_4.o(.data) for xStart
    heap_4.o(privileged_functions) refers to tasks.o(privileged_functions) for vTaskSuspendAll
    heap_4.o(privileged_functions) refers to heap_4.o(i.prvHeapInit) for prvHeapInit
    heap_4.o(privileged_functions) refers to heap_4.o(i.prvInsertBlockIntoFreeList) for prvInsertBlockIntoFreeList
    heap_4.o(privileged_functions) refers to stm32f0xx_it.o(i.vApplicationMallocFailedHook) for vApplicationMallocFailedHook
    heap_4.o(privileged_functions) refers to heap_4.o(.data) for pxEnd
    cmsis_os.o(i.osDelay) refers to tasks.o(privileged_functions) for vTaskDelay
    cmsis_os.o(i.osKernelRunning) refers to tasks.o(privileged_functions) for xTaskGetSchedulerState
    cmsis_os.o(i.osKernelStart) refers to tasks.o(privileged_functions) for vTaskStartScheduler
    cmsis_os.o(i.osKernelSysTick) refers to cmsis_os.o(i.inHandlerMode) for inHandlerMode
    cmsis_os.o(i.osKernelSysTick) refers to tasks.o(privileged_functions) for xTaskGetTickCountFromISR
    cmsis_os.o(i.osMailAlloc) refers to cmsis_os.o(i.osPoolAlloc) for osPoolAlloc
    cmsis_os.o(i.osMailCAlloc) refers to cmsis_os.o(i.osMailAlloc) for osMailAlloc
    cmsis_os.o(i.osMailCreate) refers to heap_4.o(privileged_functions) for pvPortMalloc
    cmsis_os.o(i.osMailCreate) refers to queue.o(privileged_functions) for xQueueGenericCreate
    cmsis_os.o(i.osMailCreate) refers to cmsis_os.o(i.osPoolCreate) for osPoolCreate
    cmsis_os.o(i.osMailFree) refers to cmsis_os.o(i.osPoolFree) for osPoolFree
    cmsis_os.o(i.osMailGet) refers to cmsis_os.o(i.inHandlerMode) for inHandlerMode
    cmsis_os.o(i.osMailGet) refers to queue.o(privileged_functions) for xQueueReceiveFromISR
    cmsis_os.o(i.osMailPut) refers to cmsis_os.o(i.inHandlerMode) for inHandlerMode
    cmsis_os.o(i.osMailPut) refers to queue.o(privileged_functions) for xQueueGenericSendFromISR
    cmsis_os.o(i.osMessageCreate) refers to queue.o(privileged_functions) for xQueueGenericCreate
    cmsis_os.o(i.osMessageGet) refers to cmsis_os.o(i.inHandlerMode) for inHandlerMode
    cmsis_os.o(i.osMessageGet) refers to queue.o(privileged_functions) for xQueueReceiveFromISR
    cmsis_os.o(i.osMessagePeek) refers to queue.o(privileged_functions) for xQueueGenericReceive
    cmsis_os.o(i.osMessagePut) refers to cmsis_os.o(i.inHandlerMode) for inHandlerMode
    cmsis_os.o(i.osMessagePut) refers to queue.o(privileged_functions) for xQueueGenericSendFromISR
    cmsis_os.o(i.osMutexCreate) refers to queue.o(privileged_functions) for xQueueCreateMutex
    cmsis_os.o(i.osMutexDelete) refers to cmsis_os.o(i.inHandlerMode) for inHandlerMode
    cmsis_os.o(i.osMutexDelete) refers to queue.o(privileged_functions) for vQueueDelete
    cmsis_os.o(i.osMutexRelease) refers to cmsis_os.o(i.inHandlerMode) for inHandlerMode
    cmsis_os.o(i.osMutexRelease) refers to queue.o(privileged_functions) for xQueueGiveFromISR
    cmsis_os.o(i.osMutexWait) refers to cmsis_os.o(i.inHandlerMode) for inHandlerMode
    cmsis_os.o(i.osMutexWait) refers to queue.o(privileged_functions) for xQueueReceiveFromISR
    cmsis_os.o(i.osPoolAlloc) refers to cmsis_os.o(i.inHandlerMode) for inHandlerMode
    cmsis_os.o(i.osPoolAlloc) refers to port.o(.emb_text) for ulSetInterruptMaskFromISR
    cmsis_os.o(i.osPoolAlloc) refers to port.o(i.vPortEnterCritical) for vPortEnterCritical
    cmsis_os.o(i.osPoolAlloc) refers to port.o(i.vPortExitCritical) for vPortExitCritical
    cmsis_os.o(i.osPoolCAlloc) refers to cmsis_os.o(i.osPoolAlloc) for osPoolAlloc
    cmsis_os.o(i.osPoolCAlloc) refers to memseta.o(.text) for __aeabi_memclr
    cmsis_os.o(i.osPoolCreate) refers to heap_4.o(privileged_functions) for pvPortMalloc
    cmsis_os.o(i.osPoolFree) refers to uidiv.o(.text) for __aeabi_uidivmod
    cmsis_os.o(i.osRecursiveMutexCreate) refers to queue.o(privileged_functions) for xQueueCreateMutex
    cmsis_os.o(i.osRecursiveMutexRelease) refers to queue.o(privileged_functions) for xQueueGiveMutexRecursive
    cmsis_os.o(i.osRecursiveMutexWait) refers to queue.o(privileged_functions) for xQueueTakeMutexRecursive
    cmsis_os.o(i.osSemaphoreCreate) refers to queue.o(privileged_functions) for xQueueGenericCreate
    cmsis_os.o(i.osSemaphoreDelete) refers to cmsis_os.o(i.inHandlerMode) for inHandlerMode
    cmsis_os.o(i.osSemaphoreDelete) refers to queue.o(privileged_functions) for vQueueDelete
    cmsis_os.o(i.osSemaphoreRelease) refers to cmsis_os.o(i.inHandlerMode) for inHandlerMode
    cmsis_os.o(i.osSemaphoreRelease) refers to queue.o(privileged_functions) for xQueueGiveFromISR
    cmsis_os.o(i.osSemaphoreWait) refers to cmsis_os.o(i.inHandlerMode) for inHandlerMode
    cmsis_os.o(i.osSemaphoreWait) refers to queue.o(privileged_functions) for xQueueReceiveFromISR
    cmsis_os.o(i.osSignalSet) refers to cmsis_os.o(i.inHandlerMode) for inHandlerMode
    cmsis_os.o(i.osSignalSet) refers to tasks.o(i.xTaskNotifyFromISR) for xTaskNotifyFromISR
    cmsis_os.o(i.osSignalSet) refers to tasks.o(i.xTaskGenericNotify) for xTaskGenericNotify
    cmsis_os.o(i.osSignalWait) refers to cmsis_os.o(i.inHandlerMode) for inHandlerMode
    cmsis_os.o(i.osSignalWait) refers to tasks.o(i.xTaskNotifyWait) for xTaskNotifyWait
    cmsis_os.o(i.osSystickHandler) refers to tasks.o(privileged_functions) for xTaskGetSchedulerState
    cmsis_os.o(i.osSystickHandler) refers to port.o(i.xPortSysTickHandler) for xPortSysTickHandler
    cmsis_os.o(i.osThreadCreate) refers to cmsis_os.o(i.makeFreeRtosPriority) for makeFreeRtosPriority
    cmsis_os.o(i.osThreadCreate) refers to tasks.o(privileged_functions) for xTaskGenericCreate
    cmsis_os.o(i.osThreadGetId) refers to tasks.o(privileged_functions) for xTaskGetCurrentTaskHandle
    cmsis_os.o(i.osThreadGetPriority) refers to cmsis_os.o(i.inHandlerMode) for inHandlerMode
    cmsis_os.o(i.osThreadGetPriority) refers to tasks.o(privileged_functions) for uxTaskPriorityGetFromISR
    cmsis_os.o(i.osThreadGetPriority) refers to cmsis_os.o(i.makeCmsisPriority) for makeCmsisPriority
    cmsis_os.o(i.osThreadList) refers to tasks.o(privileged_functions) for vTaskList
    cmsis_os.o(i.osThreadResume) refers to cmsis_os.o(i.inHandlerMode) for inHandlerMode
    cmsis_os.o(i.osThreadResume) refers to tasks.o(privileged_functions) for xTaskResumeFromISR
    cmsis_os.o(i.osThreadResumeAll) refers to tasks.o(privileged_functions) for xTaskResumeAll
    cmsis_os.o(i.osThreadSetPriority) refers to cmsis_os.o(i.makeFreeRtosPriority) for makeFreeRtosPriority
    cmsis_os.o(i.osThreadSetPriority) refers to tasks.o(privileged_functions) for vTaskPrioritySet
    cmsis_os.o(i.osThreadSuspend) refers to tasks.o(privileged_functions) for vTaskSuspend
    cmsis_os.o(i.osThreadSuspendAll) refers to tasks.o(privileged_functions) for vTaskSuspendAll
    cmsis_os.o(i.osThreadTerminate) refers to tasks.o(privileged_functions) for vTaskDelete
    cmsis_os.o(i.osThreadYield) refers to port.o(i.vPortYield) for vPortYield
    freertos_cli.o(i.FreeRTOS_CLIGetOutputBuffer) refers to freertos_cli.o(.bss) for cOutputBuffer
    freertos_cli.o(i.FreeRTOS_CLIProcessCommand) refers to strlen.o(.text) for strlen
    freertos_cli.o(i.FreeRTOS_CLIProcessCommand) refers to strncmp.o(.text) for strncmp
    freertos_cli.o(i.FreeRTOS_CLIProcessCommand) refers to freertos_cli.o(i.prvGetNumberOfParameters) for prvGetNumberOfParameters
    freertos_cli.o(i.FreeRTOS_CLIProcessCommand) refers to strncpy.o(.text) for strncpy
    freertos_cli.o(i.FreeRTOS_CLIProcessCommand) refers to freertos_cli.o(.data) for pxCommand
    freertos_cli.o(i.FreeRTOS_CLIProcessCommand) refers to freertos_cli.o(.conststring) for .conststring
    freertos_cli.o(i.FreeRTOS_CLIRegisterCommand) refers to heap_4.o(privileged_functions) for pvPortMalloc
    freertos_cli.o(i.FreeRTOS_CLIRegisterCommand) refers to port.o(i.vPortEnterCritical) for vPortEnterCritical
    freertos_cli.o(i.FreeRTOS_CLIRegisterCommand) refers to port.o(i.vPortExitCritical) for vPortExitCritical
    freertos_cli.o(i.FreeRTOS_CLIRegisterCommand) refers to freertos_cli.o(.data) for pxLastCommandInList
    freertos_cli.o(i.prvHelpCommand) refers to strncpy.o(.text) for strncpy
    freertos_cli.o(i.prvHelpCommand) refers to freertos_cli.o(.data) for pxCommand
    freertos_cli.o(.constdata) refers to freertos_cli.o(.conststring) for .conststring
    freertos_cli.o(.constdata) refers to freertos_cli.o(i.prvHelpCommand) for prvHelpCommand
    freertos_cli.o(.data) refers to freertos_cli.o(.constdata) for xHelpCommand
    uart-interrupt-driven-command-console.o(i.prvUARTCommandConsoleTask) refers to tasks.o(i.ulTaskNotifyTake) for ulTaskNotifyTake
    uart-interrupt-driven-command-console.o(i.prvUARTCommandConsoleTask) refers to freertos_cli.o(i.FreeRTOS_CLIGetOutputBuffer) for FreeRTOS_CLIGetOutputBuffer
    uart-interrupt-driven-command-console.o(i.prvUARTCommandConsoleTask) refers to strlen.o(.text) for strlen
    uart-interrupt-driven-command-console.o(i.prvUARTCommandConsoleTask) refers to aos_pd_usart.o(i.writePxITMutex) for writePxITMutex
    uart-interrupt-driven-command-console.o(i.prvUARTCommandConsoleTask) refers to aos_pd_usart.o(i.readPxMutex) for readPxMutex
    uart-interrupt-driven-command-console.o(i.prvUARTCommandConsoleTask) refers to strcpy.o(.text) for strcpy
    uart-interrupt-driven-command-console.o(i.prvUARTCommandConsoleTask) refers to freertos_cli.o(i.FreeRTOS_CLIProcessCommand) for FreeRTOS_CLIProcessCommand
    uart-interrupt-driven-command-console.o(i.prvUARTCommandConsoleTask) refers to aos_pd_usart.o(i.writePxMutex) for writePxMutex
    uart-interrupt-driven-command-console.o(i.prvUARTCommandConsoleTask) refers to memseta.o(.text) for __aeabi_memclr
    uart-interrupt-driven-command-console.o(i.prvUARTCommandConsoleTask) refers to port.o(i.vPortYield) for vPortYield
    uart-interrupt-driven-command-console.o(i.prvUARTCommandConsoleTask) refers to aos_pd_usart.o(.data) for PcPort
    uart-interrupt-driven-command-console.o(i.prvUARTCommandConsoleTask) refers to uart-interrupt-driven-command-console.o(.data) for pcWelcomeMessage
    uart-interrupt-driven-command-console.o(i.prvUARTCommandConsoleTask) refers to uart-interrupt-driven-command-console.o(.bss) for cLastInputString
    uart-interrupt-driven-command-console.o(i.vUARTCommandConsoleStart) refers to tasks.o(privileged_functions) for xTaskGenericCreate
    uart-interrupt-driven-command-console.o(i.vUARTCommandConsoleStart) refers to uart-interrupt-driven-command-console.o(.data) for xCommandConsoleTask
    uart-interrupt-driven-command-console.o(i.vUARTCommandConsoleStart) refers to uart-interrupt-driven-command-console.o(i.prvUARTCommandConsoleTask) for prvUARTCommandConsoleTask
    uart-interrupt-driven-command-console.o(.data) refers to uart-interrupt-driven-command-console.o(.conststring) for .conststring
    startup_stm32f091xc.o(RESET) refers to startup_stm32f091xc.o(STACK) for __initial_sp
    startup_stm32f091xc.o(RESET) refers to startup_stm32f091xc.o(.text) for Reset_Handler
    startup_stm32f091xc.o(RESET) refers to port.o(i.SVC_Handler) for SVC_Handler
    startup_stm32f091xc.o(RESET) refers to port.o(.emb_text) for PendSV_Handler
    startup_stm32f091xc.o(RESET) refers to stm32f0xx_it.o(i.SysTick_Handler) for SysTick_Handler
    startup_stm32f091xc.o(RESET) refers to stm32f0xx_it.o(i.DMA1_Ch1_IRQHandler) for DMA1_Ch1_IRQHandler
    startup_stm32f091xc.o(RESET) refers to stm32f0xx_it.o(i.DMA1_Ch2_3_DMA2_Ch1_2_IRQHandler) for DMA1_Ch2_3_DMA2_Ch1_2_IRQHandler
    startup_stm32f091xc.o(RESET) refers to stm32f0xx_it.o(i.DMA1_Ch4_7_DMA2_Ch3_5_IRQHandler) for DMA1_Ch4_7_DMA2_Ch3_5_IRQHandler
    startup_stm32f091xc.o(RESET) refers to stm32f0xx_it.o(i.TIM2_IRQHandler) for TIM2_IRQHandler
    startup_stm32f091xc.o(RESET) refers to stm32f0xx_it.o(i.USART1_IRQHandler) for USART1_IRQHandler
    startup_stm32f091xc.o(RESET) refers to stm32f0xx_it.o(i.USART2_IRQHandler) for USART2_IRQHandler
    startup_stm32f091xc.o(RESET) refers to stm32f0xx_it.o(i.USART3_8_IRQHandler) for USART3_8_IRQHandler
    startup_stm32f091xc.o(.text) refers to system_stm32f0xx.o(i.SystemInit) for SystemInit
    startup_stm32f091xc.o(.text) refers to entry.o(.ARM.Collect$$$$00000000) for __main
    atof.o(i.__softfp_atof) refers (Special) to iusefp.o(.text) for __I$use$fp
    atof.o(i.__softfp_atof) refers to errno.o(i.__read_errno) for __read_errno
    atof.o(i.__softfp_atof) refers to strtod.o(.text) for __strtod_int
    atof.o(i.__softfp_atof) refers to errno.o(i.__set_errno) for __set_errno
    atof.o(i.atof) refers (Special) to iusefp.o(.text) for __I$use$fp
    atof.o(i.atof) refers to errno.o(i.__read_errno) for __read_errno
    atof.o(i.atof) refers to strtod.o(.text) for __strtod_int
    atof.o(i.atof) refers to errno.o(i.__set_errno) for __set_errno
    entry.o(.ARM.Collect$$$$00000000) refers (Special) to entry10a.o(.ARM.Collect$$$$0000000D) for __rt_final_cpp
    entry.o(.ARM.Collect$$$$00000000) refers (Special) to entry11a.o(.ARM.Collect$$$$0000000F) for __rt_final_exit
    entry.o(.ARM.Collect$$$$00000000) refers (Special) to entry7b.o(.ARM.Collect$$$$00000008) for _main_clock
    entry.o(.ARM.Collect$$$$00000000) refers (Special) to entry8b.o(.ARM.Collect$$$$0000000A) for _main_cpp_init
    entry.o(.ARM.Collect$$$$00000000) refers (Special) to entry9a.o(.ARM.Collect$$$$0000000B) for _main_init
    entry.o(.ARM.Collect$$$$00000000) refers (Special) to entry5.o(.ARM.Collect$$$$00000004) for _main_scatterload
    entry.o(.ARM.Collect$$$$00000000) refers (Special) to entry2.o(.ARM.Collect$$$$00000001) for _main_stk
    rand.o(.text) refers to rand.o(.data) for .data
    printfb.o(i.__0fprintf$bare) refers to printfb.o(i._printf_core) for _printf_core
    printfb.o(i.__0fprintf$bare) refers to fputc.o(i.fputc) for fputc
    printfb.o(i.__0printf$bare) refers to printfb.o(i._printf_core) for _printf_core
    printfb.o(i.__0printf$bare) refers to fputc.o(i.fputc) for fputc
    printfb.o(i.__0printf$bare) refers to stdout.o(.data) for __stdout
    printfb.o(i.__0snprintf$bare) refers to printfb.o(i._printf_core) for _printf_core
    printfb.o(i.__0snprintf$bare) refers to printfb.o(i._snputc) for _snputc
    printfb.o(i.__0sprintf$bare) refers to printfb.o(i._printf_core) for _printf_core
    printfb.o(i.__0sprintf$bare) refers to printfb.o(i._sputc) for _sputc
    printfb.o(i.__0vfprintf$bare) refers to printfb.o(i._printf_core) for _printf_core
    printfb.o(i.__0vfprintf$bare) refers to fputc.o(i.fputc) for fputc
    printfb.o(i.__0vprintf$bare) refers to printfb.o(i._printf_core) for _printf_core
    printfb.o(i.__0vprintf$bare) refers to fputc.o(i.fputc) for fputc
    printfb.o(i.__0vprintf$bare) refers to stdout.o(.data) for __stdout
    printfb.o(i.__0vsnprintf$bare) refers to printfb.o(i._printf_core) for _printf_core
    printfb.o(i.__0vsnprintf$bare) refers to printfb.o(i._snputc) for _snputc
    printfb.o(i.__0vsprintf$bare) refers to printfb.o(i._printf_core) for _printf_core
    printfb.o(i.__0vsprintf$bare) refers to printfb.o(i._sputc) for _sputc
    printf0.o(i.__0fprintf$0) refers to printf0.o(i._printf_core) for _printf_core
    printf0.o(i.__0fprintf$0) refers to fputc.o(i.fputc) for fputc
    printf0.o(i.__0printf$0) refers to printf0.o(i._printf_core) for _printf_core
    printf0.o(i.__0printf$0) refers to fputc.o(i.fputc) for fputc
    printf0.o(i.__0printf$0) refers to stdout.o(.data) for __stdout
    printf0.o(i.__0snprintf$0) refers to printf0.o(i._printf_core) for _printf_core
    printf0.o(i.__0snprintf$0) refers to printf0.o(i._snputc) for _snputc
    printf0.o(i.__0sprintf$0) refers to printf0.o(i._printf_core) for _printf_core
    printf0.o(i.__0sprintf$0) refers to printf0.o(i._sputc) for _sputc
    printf0.o(i.__0vfprintf$0) refers to printf0.o(i._printf_core) for _printf_core
    printf0.o(i.__0vfprintf$0) refers to fputc.o(i.fputc) for fputc
    printf0.o(i.__0vprintf$0) refers to printf0.o(i._printf_core) for _printf_core
    printf0.o(i.__0vprintf$0) refers to fputc.o(i.fputc) for fputc
    printf0.o(i.__0vprintf$0) refers to stdout.o(.data) for __stdout
    printf0.o(i.__0vsnprintf$0) refers to printf0.o(i._printf_core) for _printf_core
    printf0.o(i.__0vsnprintf$0) refers to printf0.o(i._snputc) for _snputc
    printf0.o(i.__0vsprintf$0) refers to printf0.o(i._printf_core) for _printf_core
    printf0.o(i.__0vsprintf$0) refers to printf0.o(i._sputc) for _sputc
    printf1.o(i.__0fprintf$1) refers to printf1.o(i._printf_core) for _printf_core
    printf1.o(i.__0fprintf$1) refers to fputc.o(i.fputc) for fputc
    printf1.o(i.__0printf$1) refers to printf1.o(i._printf_core) for _printf_core
    printf1.o(i.__0printf$1) refers to fputc.o(i.fputc) for fputc
    printf1.o(i.__0printf$1) refers to stdout.o(.data) for __stdout
    printf1.o(i.__0snprintf$1) refers to printf1.o(i._printf_core) for _printf_core
    printf1.o(i.__0snprintf$1) refers to printf1.o(i._snputc) for _snputc
    printf1.o(i.__0sprintf$1) refers to printf1.o(i._printf_core) for _printf_core
    printf1.o(i.__0sprintf$1) refers to printf1.o(i._sputc) for _sputc
    printf1.o(i.__0vfprintf$1) refers to printf1.o(i._printf_core) for _printf_core
    printf1.o(i.__0vfprintf$1) refers to fputc.o(i.fputc) for fputc
    printf1.o(i.__0vprintf$1) refers to printf1.o(i._printf_core) for _printf_core
    printf1.o(i.__0vprintf$1) refers to fputc.o(i.fputc) for fputc
    printf1.o(i.__0vprintf$1) refers to stdout.o(.data) for __stdout
    printf1.o(i.__0vsnprintf$1) refers to printf1.o(i._printf_core) for _printf_core
    printf1.o(i.__0vsnprintf$1) refers to printf1.o(i._snputc) for _snputc
    printf1.o(i.__0vsprintf$1) refers to printf1.o(i._printf_core) for _printf_core
    printf1.o(i.__0vsprintf$1) refers to printf1.o(i._sputc) for _sputc
    printf1.o(i._printf_core) refers to uidiv.o(.text) for __aeabi_uidivmod
    printf2.o(i.__0fprintf$2) refers to printf2.o(i._printf_core) for _printf_core
    printf2.o(i.__0fprintf$2) refers to fputc.o(i.fputc) for fputc
    printf2.o(i.__0printf$2) refers to printf2.o(i._printf_core) for _printf_core
    printf2.o(i.__0printf$2) refers to fputc.o(i.fputc) for fputc
    printf2.o(i.__0printf$2) refers to stdout.o(.data) for __stdout
    printf2.o(i.__0snprintf$2) refers to printf2.o(i._printf_core) for _printf_core
    printf2.o(i.__0snprintf$2) refers to printf2.o(i._snputc) for _snputc
    printf2.o(i.__0sprintf$2) refers to printf2.o(i._printf_core) for _printf_core
    printf2.o(i.__0sprintf$2) refers to printf2.o(i._sputc) for _sputc
    printf2.o(i.__0vfprintf$2) refers to printf2.o(i._printf_core) for _printf_core
    printf2.o(i.__0vfprintf$2) refers to fputc.o(i.fputc) for fputc
    printf2.o(i.__0vprintf$2) refers to printf2.o(i._printf_core) for _printf_core
    printf2.o(i.__0vprintf$2) refers to fputc.o(i.fputc) for fputc
    printf2.o(i.__0vprintf$2) refers to stdout.o(.data) for __stdout
    printf2.o(i.__0vsnprintf$2) refers to printf2.o(i._printf_core) for _printf_core
    printf2.o(i.__0vsnprintf$2) refers to printf2.o(i._snputc) for _snputc
    printf2.o(i.__0vsprintf$2) refers to printf2.o(i._printf_core) for _printf_core
    printf2.o(i.__0vsprintf$2) refers to printf2.o(i._sputc) for _sputc
    printf3.o(i.__0fprintf$3) refers to printf3.o(i._printf_core) for _printf_core
    printf3.o(i.__0fprintf$3) refers to fputc.o(i.fputc) for fputc
    printf3.o(i.__0printf$3) refers to printf3.o(i._printf_core) for _printf_core
    printf3.o(i.__0printf$3) refers to fputc.o(i.fputc) for fputc
    printf3.o(i.__0printf$3) refers to stdout.o(.data) for __stdout
    printf3.o(i.__0snprintf$3) refers to printf3.o(i._printf_core) for _printf_core
    printf3.o(i.__0snprintf$3) refers to printf3.o(i._snputc) for _snputc
    printf3.o(i.__0sprintf$3) refers to printf3.o(i._printf_core) for _printf_core
    printf3.o(i.__0sprintf$3) refers to printf3.o(i._sputc) for _sputc
    printf3.o(i.__0vfprintf$3) refers to printf3.o(i._printf_core) for _printf_core
    printf3.o(i.__0vfprintf$3) refers to fputc.o(i.fputc) for fputc
    printf3.o(i.__0vprintf$3) refers to printf3.o(i._printf_core) for _printf_core
    printf3.o(i.__0vprintf$3) refers to fputc.o(i.fputc) for fputc
    printf3.o(i.__0vprintf$3) refers to stdout.o(.data) for __stdout
    printf3.o(i.__0vsnprintf$3) refers to printf3.o(i._printf_core) for _printf_core
    printf3.o(i.__0vsnprintf$3) refers to printf3.o(i._snputc) for _snputc
    printf3.o(i.__0vsprintf$3) refers to printf3.o(i._printf_core) for _printf_core
    printf3.o(i.__0vsprintf$3) refers to printf3.o(i._sputc) for _sputc
    printf3.o(i._printf_core) refers to uidiv.o(.text) for __aeabi_uidivmod
    printf4.o(i.__0fprintf$4) refers to printf4.o(i._printf_core) for _printf_core
    printf4.o(i.__0fprintf$4) refers to fputc.o(i.fputc) for fputc
    printf4.o(i.__0printf$4) refers to printf4.o(i._printf_core) for _printf_core
    printf4.o(i.__0printf$4) refers to fputc.o(i.fputc) for fputc
    printf4.o(i.__0printf$4) refers to stdout.o(.data) for __stdout
    printf4.o(i.__0snprintf$4) refers to printf4.o(i._printf_core) for _printf_core
    printf4.o(i.__0snprintf$4) refers to printf4.o(i._snputc) for _snputc
    printf4.o(i.__0sprintf$4) refers to printf4.o(i._printf_core) for _printf_core
    printf4.o(i.__0sprintf$4) refers to printf4.o(i._sputc) for _sputc
    printf4.o(i.__0vfprintf$4) refers to printf4.o(i._printf_core) for _printf_core
    printf4.o(i.__0vfprintf$4) refers to fputc.o(i.fputc) for fputc
    printf4.o(i.__0vprintf$4) refers to printf4.o(i._printf_core) for _printf_core
    printf4.o(i.__0vprintf$4) refers to fputc.o(i.fputc) for fputc
    printf4.o(i.__0vprintf$4) refers to stdout.o(.data) for __stdout
    printf4.o(i.__0vsnprintf$4) refers to printf4.o(i._printf_core) for _printf_core
    printf4.o(i.__0vsnprintf$4) refers to printf4.o(i._snputc) for _snputc
    printf4.o(i.__0vsprintf$4) refers to printf4.o(i._printf_core) for _printf_core
    printf4.o(i.__0vsprintf$4) refers to printf4.o(i._sputc) for _sputc
    printf4.o(i._printf_core) refers to uldiv.o(.text) for __aeabi_uldivmod
    printf5.o(i.__0fprintf$5) refers to printf5.o(i._printf_core) for _printf_core
    printf5.o(i.__0fprintf$5) refers to fputc.o(i.fputc) for fputc
    printf5.o(i.__0printf$5) refers to printf5.o(i._printf_core) for _printf_core
    printf5.o(i.__0printf$5) refers to fputc.o(i.fputc) for fputc
    printf5.o(i.__0printf$5) refers to stdout.o(.data) for __stdout
    printf5.o(i.__0snprintf$5) refers to printf5.o(i._printf_core) for _printf_core
    printf5.o(i.__0snprintf$5) refers to printf5.o(i._snputc) for _snputc
    printf5.o(i.__0sprintf$5) refers to printf5.o(i._printf_core) for _printf_core
    printf5.o(i.__0sprintf$5) refers to printf5.o(i._sputc) for _sputc
    printf5.o(i.__0vfprintf$5) refers to printf5.o(i._printf_core) for _printf_core
    printf5.o(i.__0vfprintf$5) refers to fputc.o(i.fputc) for fputc
    printf5.o(i.__0vprintf$5) refers to printf5.o(i._printf_core) for _printf_core
    printf5.o(i.__0vprintf$5) refers to fputc.o(i.fputc) for fputc
    printf5.o(i.__0vprintf$5) refers to stdout.o(.data) for __stdout
    printf5.o(i.__0vsnprintf$5) refers to printf5.o(i._printf_core) for _printf_core
    printf5.o(i.__0vsnprintf$5) refers to printf5.o(i._snputc) for _snputc
    printf5.o(i.__0vsprintf$5) refers to printf5.o(i._printf_core) for _printf_core
    printf5.o(i.__0vsprintf$5) refers to printf5.o(i._sputc) for _sputc
    printf5.o(i._printf_core) refers to uldiv.o(.text) for __aeabi_uldivmod
    printf6.o(i.__0fprintf$6) refers to printf6.o(i._printf_core) for _printf_core
    printf6.o(i.__0fprintf$6) refers to fputc.o(i.fputc) for fputc
    printf6.o(i.__0printf$6) refers to printf6.o(i._printf_core) for _printf_core
    printf6.o(i.__0printf$6) refers to fputc.o(i.fputc) for fputc
    printf6.o(i.__0printf$6) refers to stdout.o(.data) for __stdout
    printf6.o(i.__0snprintf$6) refers to printf6.o(i._printf_core) for _printf_core
    printf6.o(i.__0snprintf$6) refers to printf6.o(i._snputc) for _snputc
    printf6.o(i.__0sprintf$6) refers to printf6.o(i._printf_core) for _printf_core
    printf6.o(i.__0sprintf$6) refers to printf6.o(i._sputc) for _sputc
    printf6.o(i.__0vfprintf$6) refers to printf6.o(i._printf_core) for _printf_core
    printf6.o(i.__0vfprintf$6) refers to fputc.o(i.fputc) for fputc
    printf6.o(i.__0vprintf$6) refers to printf6.o(i._printf_core) for _printf_core
    printf6.o(i.__0vprintf$6) refers to fputc.o(i.fputc) for fputc
    printf6.o(i.__0vprintf$6) refers to stdout.o(.data) for __stdout
    printf6.o(i.__0vsnprintf$6) refers to printf6.o(i._printf_core) for _printf_core
    printf6.o(i.__0vsnprintf$6) refers to printf6.o(i._snputc) for _snputc
    printf6.o(i.__0vsprintf$6) refers to printf6.o(i._printf_core) for _printf_core
    printf6.o(i.__0vsprintf$6) refers to printf6.o(i._sputc) for _sputc
    printf6.o(i._printf_core) refers to printf6.o(i._printf_pre_padding) for _printf_pre_padding
    printf6.o(i._printf_core) refers to printf6.o(i._printf_post_padding) for _printf_post_padding
    printf6.o(i._printf_core) refers to uidiv.o(.text) for __aeabi_uidivmod
    printf7.o(i.__0fprintf$7) refers to printf7.o(i._printf_core) for _printf_core
    printf7.o(i.__0fprintf$7) refers to fputc.o(i.fputc) for fputc
    printf7.o(i.__0printf$7) refers to printf7.o(i._printf_core) for _printf_core
    printf7.o(i.__0printf$7) refers to fputc.o(i.fputc) for fputc
    printf7.o(i.__0printf$7) refers to stdout.o(.data) for __stdout
    printf7.o(i.__0snprintf$7) refers to printf7.o(i._printf_core) for _printf_core
    printf7.o(i.__0snprintf$7) refers to printf7.o(i._snputc) for _snputc
    printf7.o(i.__0sprintf$7) refers to printf7.o(i._printf_core) for _printf_core
    printf7.o(i.__0sprintf$7) refers to printf7.o(i._sputc) for _sputc
    printf7.o(i.__0vfprintf$7) refers to printf7.o(i._printf_core) for _printf_core
    printf7.o(i.__0vfprintf$7) refers to fputc.o(i.fputc) for fputc
    printf7.o(i.__0vprintf$7) refers to printf7.o(i._printf_core) for _printf_core
    printf7.o(i.__0vprintf$7) refers to fputc.o(i.fputc) for fputc
    printf7.o(i.__0vprintf$7) refers to stdout.o(.data) for __stdout
    printf7.o(i.__0vsnprintf$7) refers to printf7.o(i._printf_core) for _printf_core
    printf7.o(i.__0vsnprintf$7) refers to printf7.o(i._snputc) for _snputc
    printf7.o(i.__0vsprintf$7) refers to printf7.o(i._printf_core) for _printf_core
    printf7.o(i.__0vsprintf$7) refers to printf7.o(i._sputc) for _sputc
    printf7.o(i._printf_core) refers to printf7.o(i._printf_pre_padding) for _printf_pre_padding
    printf7.o(i._printf_core) refers to printf7.o(i._printf_post_padding) for _printf_post_padding
    printf7.o(i._printf_core) refers to uldiv.o(.text) for __aeabi_uldivmod
    printf8.o(i.__0fprintf$8) refers to printf8.o(i._printf_core) for _printf_core
    printf8.o(i.__0fprintf$8) refers to fputc.o(i.fputc) for fputc
    printf8.o(i.__0printf$8) refers to printf8.o(i._printf_core) for _printf_core
    printf8.o(i.__0printf$8) refers to fputc.o(i.fputc) for fputc
    printf8.o(i.__0printf$8) refers to stdout.o(.data) for __stdout
    printf8.o(i.__0snprintf$8) refers to printf8.o(i._printf_core) for _printf_core
    printf8.o(i.__0snprintf$8) refers to printf8.o(i._snputc) for _snputc
    printf8.o(i.__0sprintf$8) refers to printf8.o(i._printf_core) for _printf_core
    printf8.o(i.__0sprintf$8) refers to printf8.o(i._sputc) for _sputc
    printf8.o(i.__0vfprintf$8) refers to printf8.o(i._printf_core) for _printf_core
    printf8.o(i.__0vfprintf$8) refers to fputc.o(i.fputc) for fputc
    printf8.o(i.__0vprintf$8) refers to printf8.o(i._printf_core) for _printf_core
    printf8.o(i.__0vprintf$8) refers to fputc.o(i.fputc) for fputc
    printf8.o(i.__0vprintf$8) refers to stdout.o(.data) for __stdout
    printf8.o(i.__0vsnprintf$8) refers to printf8.o(i._printf_core) for _printf_core
    printf8.o(i.__0vsnprintf$8) refers to printf8.o(i._snputc) for _snputc
    printf8.o(i.__0vsprintf$8) refers to printf8.o(i._printf_core) for _printf_core
    printf8.o(i.__0vsprintf$8) refers to printf8.o(i._sputc) for _sputc
    printf8.o(i._printf_core) refers to printf8.o(i._printf_pre_padding) for _printf_pre_padding
    printf8.o(i._printf_core) refers to printf8.o(i._printf_post_padding) for _printf_post_padding
    printf8.o(i._printf_core) refers to uldiv.o(.text) for __aeabi_uldivmod
    printfa.o(i.__0fprintf) refers (Special) to iusefp.o(.text) for __I$use$fp
    printfa.o(i.__0fprintf) refers to printfa.o(i._printf_core) for _printf_core
    printfa.o(i.__0fprintf) refers to fputc.o(i.fputc) for fputc
    printfa.o(i.__0printf) refers (Special) to iusefp.o(.text) for __I$use$fp
    printfa.o(i.__0printf) refers to printfa.o(i._printf_core) for _printf_core
    printfa.o(i.__0printf) refers to fputc.o(i.fputc) for fputc
    printfa.o(i.__0printf) refers to stdout.o(.data) for __stdout
    printfa.o(i.__0snprintf) refers (Special) to iusefp.o(.text) for __I$use$fp
    printfa.o(i.__0snprintf) refers to printfa.o(i._printf_core) for _printf_core
    printfa.o(i.__0snprintf) refers to printfa.o(i._snputc) for _snputc
    printfa.o(i.__0sprintf) refers (Special) to iusefp.o(.text) for __I$use$fp
    printfa.o(i.__0sprintf) refers to printfa.o(i._printf_core) for _printf_core
    printfa.o(i.__0sprintf) refers to printfa.o(i._sputc) for _sputc
    printfa.o(i.__0vfprintf) refers (Special) to iusefp.o(.text) for __I$use$fp
    printfa.o(i.__0vfprintf) refers to printfa.o(i._printf_core) for _printf_core
    printfa.o(i.__0vfprintf) refers to fputc.o(i.fputc) for fputc
    printfa.o(i.__0vprintf) refers (Special) to iusefp.o(.text) for __I$use$fp
    printfa.o(i.__0vprintf) refers to printfa.o(i._printf_core) for _printf_core
    printfa.o(i.__0vprintf) refers to fputc.o(i.fputc) for fputc
    printfa.o(i.__0vprintf) refers to stdout.o(.data) for __stdout
    printfa.o(i.__0vsnprintf) refers (Special) to iusefp.o(.text) for __I$use$fp
    printfa.o(i.__0vsnprintf) refers to printfa.o(i._printf_core) for _printf_core
    printfa.o(i.__0vsnprintf) refers to printfa.o(i._snputc) for _snputc
    printfa.o(i.__0vsprintf) refers (Special) to iusefp.o(.text) for __I$use$fp
    printfa.o(i.__0vsprintf) refers to printfa.o(i._printf_core) for _printf_core
    printfa.o(i.__0vsprintf) refers to printfa.o(i._sputc) for _sputc
    printfa.o(i._fp_digits) refers (Special) to iusefp.o(.text) for __I$use$fp
    printfa.o(i._fp_digits) refers to dmul.o(.text) for __aeabi_dmul
    printfa.o(i._fp_digits) refers to ddiv.o(.text) for __aeabi_ddiv
    printfa.o(i._fp_digits) refers to cdrcmple.o(.text) for __aeabi_cdrcmple
    printfa.o(i._fp_digits) refers to dadd.o(.text) for __aeabi_dadd
    printfa.o(i._fp_digits) refers to dfixul.o(.text) for __aeabi_d2ulz
    printfa.o(i._fp_digits) refers to uldiv.o(.text) for __aeabi_uldivmod
    printfa.o(i._printf_core) refers (Special) to iusefp.o(.text) for __I$use$fp
    printfa.o(i._printf_core) refers to printfa.o(i._printf_pre_padding) for _printf_pre_padding
    printfa.o(i._printf_core) refers to uldiv.o(.text) for __aeabi_uldivmod
    printfa.o(i._printf_core) refers to printfa.o(i._printf_post_padding) for _printf_post_padding
    printfa.o(i._printf_core) refers to printfa.o(i._fp_digits) for _fp_digits
    printfa.o(i._printf_core) refers to uidiv.o(.text) for __aeabi_uidivmod
    printfa.o(i._printf_post_padding) refers (Special) to iusefp.o(.text) for __I$use$fp
    printfa.o(i._printf_pre_padding) refers (Special) to iusefp.o(.text) for __I$use$fp
    printfa.o(i._snputc) refers (Special) to iusefp.o(.text) for __I$use$fp
    printfa.o(i._sputc) refers (Special) to iusefp.o(.text) for __I$use$fp
    atoi.o(.text) refers to errno.o(i.__aeabi_errno_addr) for __aeabi_errno_addr
    atoi.o(.text) refers to strtol.o(.text) for strtol
    atol.o(.text) refers to errno.o(i.__aeabi_errno_addr) for __aeabi_errno_addr
    atol.o(.text) refers to strtol.o(.text) for strtol
    f2d.o(.text) refers (Special) to iusefp.o(.text) for __I$use$fp
    d2f.o(.text) refers (Special) to iusefp.o(.text) for __I$use$fp
    d2f.o(.text) refers to fepilogue.o(.text) for _float_round
    cfcmple.o(.text) refers (Special) to iusefp.o(.text) for __I$use$fp
    entry2.o(.ARM.Collect$$$$00000001) refers to entry2.o(.ARM.Collect$$$$00002712) for __lit__00000000
    entry2.o(.ARM.Collect$$$$00002712) refers to startup_stm32f091xc.o(STACK) for __initial_sp
    entry2.o(__vectab_stack_and_reset_area) refers to startup_stm32f091xc.o(STACK) for __initial_sp
    entry2.o(__vectab_stack_and_reset_area) refers to entry.o(.ARM.Collect$$$$00000000) for __main
    entry5.o(.ARM.Collect$$$$00000004) refers to init.o(.text) for __scatterload
    entry9a.o(.ARM.Collect$$$$0000000B) refers to main.o(i.main) for main
    entry9b.o(.ARM.Collect$$$$0000000C) refers to main.o(i.main) for main
    fputc.o(i.fputc) refers (Special) to iusesemip.o(.text) for __I$use$semihosting$fputc
    fputc.o(i.fputc) refers (Special) to semi.o(.text) for __semihosting_library_function
    uldiv.o(.text) refers to llushr.o(.text) for __aeabi_llsr
    uldiv.o(.text) refers to llshl.o(.text) for __aeabi_llsl
    errno.o(i.__aeabi_errno_addr) refers to errno.o(.data) for .data
    errno.o(i.__read_errno) refers to errno.o(.data) for .data
    errno.o(i.__set_errno) refers to errno.o(.data) for .data
    strtod.o(.text) refers to scanf_fp.o(.text) for _scanf_real
    strtod.o(.text) refers to _sgetc.o(.text) for _sgetc
    strtod.o(.text) refers to isspace_o.o(.text) for isspace
    strtol.o(.text) refers to ctype_o.o(.text) for __rt_ctype_table
    strtol.o(.text) refers to _strtoul.o(.text) for _strtoul
    strtol.o(.text) refers to errno.o(i.__aeabi_errno_addr) for __aeabi_errno_addr
    dadd.o(.text) refers to llshl.o(.text) for __aeabi_llsl
    dadd.o(.text) refers to llsshr.o(.text) for __aeabi_lasr
    dadd.o(.text) refers to depilogue.o(.text) for _double_epilogue
    dmul.o(.text) refers to depilogue.o(.text) for _double_epilogue
    ddiv.o(.text) refers to depilogue.o(.text) for _double_round
    dfixul.o(.text) refers to llushr.o(.text) for __aeabi_llsr
    dfixul.o(.text) refers to llshl.o(.text) for __aeabi_llsl
    init.o(.text) refers to entry5.o(.ARM.Collect$$$$00000004) for __main_after_scatterload
    isspace_c.o(.text) refers to ctype_c.o(.text) for __ctype_lookup
    ctype_o.o(.text) refers to ctype_o.o(.constdata) for .constdata
    ctype_o.o(.constdata) refers to ctype_o.o(.constdata) for __ctype_table
    isalnum_o.o(.text) refers to ctype_o.o(.text) for __rt_ctype_table
    isalpha_o.o(.text) refers to ctype_o.o(.text) for __rt_ctype_table
    isblank_o.o(.text) refers to ctype_o.o(.constdata) for __ctype_table
    iscntrl_o.o(.text) refers to ctype_o.o(.text) for __rt_ctype_table
    isdigit_o.o(.text) refers to ctype_o.o(.text) for __rt_ctype_table
    isgraph_o.o(.text) refers to ctype_o.o(.text) for __rt_ctype_table
    islower_o.o(.text) refers to ctype_o.o(.text) for __rt_ctype_table
    isprint_o.o(.text) refers to ctype_o.o(.text) for __rt_ctype_table
    ispunct_o.o(.text) refers to ctype_o.o(.text) for __rt_ctype_table
    isspace_o.o(.text) refers to ctype_o.o(.text) for __rt_ctype_table
    isupper_o.o(.text) refers to ctype_o.o(.text) for __rt_ctype_table
    isxdigit_o.o(.text) refers to ctype_o.o(.text) for __rt_ctype_table
    scanf_fp.o(.text) refers (Special) to iusefp.o(.text) for __I$use$fp
    scanf_fp.o(.text) refers to llmul.o(.text) for __aeabi_lmul
    scanf_fp.o(.text) refers to dfltul.o(.text) for __aeabi_ul2d
    scanf_fp.o(.text) refers to dmul.o(.text) for __aeabi_dmul
    scanf_fp.o(.text) refers to ddiv.o(.text) for __aeabi_ddiv
    scanf_fp.o(.text) refers to scanf_fp.o(i._is_digit) for _is_digit
    scanf_fp.o(.text) refers to d2f.o(.text) for __aeabi_d2f
    _strtoul.o(.text) refers to _chval.o(.text) for _chval
    _strtoul.o(.text) refers to errno.o(i.__aeabi_errno_addr) for __aeabi_errno_addr
    depilogue.o(.text) refers to depilogue.o(i.__ARM_clz) for __ARM_clz
    depilogue.o(.text) refers to llshl.o(.text) for __aeabi_llsl
    depilogue.o(.text) refers to llushr.o(.text) for __aeabi_llsr
    llmul.o(.text) refers to llshl.o(.text) for __aeabi_llsl
    ctype_c.o(.text) refers to ctype_c.o(.constdata) for .constdata
    dfltul.o(.text) refers to depilogue.o(.text) for _double_epilogue
    scanf_fp.o(i._is_digit) refers (Special) to iusefp.o(.text) for __I$use$fp


==============================================================================

Removing Unused input sections from the image.

    Removing freertos.o(.rev16_text), (4 bytes).
    Removing freertos.o(.revsh_text), (4 bytes).
    Removing stm32f0xx_it.o(.rev16_text), (4 bytes).
    Removing stm32f0xx_it.o(.revsh_text), (4 bytes).
    Removing stm32f0xx_it.o(.data), (169 bytes).
    Removing main.o(.rev16_text), (4 bytes).
    Removing main.o(.revsh_text), (4 bytes).
    Removing system_stm32f0xx.o(.rev16_text), (4 bytes).
    Removing system_stm32f0xx.o(.revsh_text), (4 bytes).
    Removing system_stm32f0xx.o(i.SystemCoreClockUpdate), (208 bytes).
    Removing stm32f0xx_hal_flash_ex.o(.rev16_text), (4 bytes).
    Removing stm32f0xx_hal_flash_ex.o(.revsh_text), (4 bytes).
    Removing stm32f0xx_hal_flash_ex.o(i.FLASH_MassErase), (40 bytes).
    Removing stm32f0xx_hal_flash_ex.o(i.FLASH_OB_DisableWRP), (228 bytes).
    Removing stm32f0xx_hal_flash_ex.o(i.FLASH_OB_EnableWRP), (232 bytes).
    Removing stm32f0xx_hal_flash_ex.o(i.FLASH_OB_GetRDP), (44 bytes).
    Removing stm32f0xx_hal_flash_ex.o(i.FLASH_OB_GetUser), (20 bytes).
    Removing stm32f0xx_hal_flash_ex.o(i.FLASH_OB_GetWRP), (12 bytes).
    Removing stm32f0xx_hal_flash_ex.o(i.FLASH_OB_ProgramData), (76 bytes).
    Removing stm32f0xx_hal_flash_ex.o(i.FLASH_OB_RDP_LevelConfig), (128 bytes).
    Removing stm32f0xx_hal_flash_ex.o(i.FLASH_OB_UserConfig), (80 bytes).
    Removing stm32f0xx_hal_flash_ex.o(i.FLASH_PageErase), (44 bytes).
    Removing stm32f0xx_hal_flash_ex.o(i.HAL_FLASHEx_Erase), (172 bytes).
    Removing stm32f0xx_hal_flash_ex.o(i.HAL_FLASHEx_Erase_IT), (104 bytes).
    Removing stm32f0xx_hal_flash_ex.o(i.HAL_FLASHEx_OBErase), (100 bytes).
    Removing stm32f0xx_hal_flash_ex.o(i.HAL_FLASHEx_OBGetConfig), (28 bytes).
    Removing stm32f0xx_hal_flash_ex.o(i.HAL_FLASHEx_OBProgram), (98 bytes).
    Removing stm32f0xx_hal_rcc.o(.rev16_text), (4 bytes).
    Removing stm32f0xx_hal_rcc.o(.revsh_text), (4 bytes).
    Removing stm32f0xx_hal_rcc.o(i.HAL_RCC_CSSCallback), (2 bytes).
    Removing stm32f0xx_hal_rcc.o(i.HAL_RCC_DeInit), (76 bytes).
    Removing stm32f0xx_hal_rcc.o(i.HAL_RCC_DisableCSS), (20 bytes).
    Removing stm32f0xx_hal_rcc.o(i.HAL_RCC_EnableCSS), (20 bytes).
    Removing stm32f0xx_hal_rcc.o(i.HAL_RCC_GetClockConfig), (56 bytes).
    Removing stm32f0xx_hal_rcc.o(i.HAL_RCC_GetOscConfig), (264 bytes).
    Removing stm32f0xx_hal_rcc.o(i.HAL_RCC_MCOConfig), (100 bytes).
    Removing stm32f0xx_hal_rcc.o(i.HAL_RCC_NMI_IRQHandler), (32 bytes).
    Removing stm32f0xx_hal_pwr.o(.rev16_text), (4 bytes).
    Removing stm32f0xx_hal_pwr.o(.revsh_text), (4 bytes).
    Removing stm32f0xx_hal_pwr.o(i.HAL_PWR_DeInit), (32 bytes).
    Removing stm32f0xx_hal_pwr.o(i.HAL_PWR_DisableBkUpAccess), (20 bytes).
    Removing stm32f0xx_hal_pwr.o(i.HAL_PWR_DisableSEVOnPend), (20 bytes).
    Removing stm32f0xx_hal_pwr.o(i.HAL_PWR_DisableSleepOnExit), (20 bytes).
    Removing stm32f0xx_hal_pwr.o(i.HAL_PWR_DisableWakeUpPin), (24 bytes).
    Removing stm32f0xx_hal_pwr.o(i.HAL_PWR_EnableBkUpAccess), (20 bytes).
    Removing stm32f0xx_hal_pwr.o(i.HAL_PWR_EnableSEVOnPend), (20 bytes).
    Removing stm32f0xx_hal_pwr.o(i.HAL_PWR_EnableSleepOnExit), (20 bytes).
    Removing stm32f0xx_hal_pwr.o(i.HAL_PWR_EnableWakeUpPin), (24 bytes).
    Removing stm32f0xx_hal_pwr.o(i.HAL_PWR_EnterSLEEPMode), (32 bytes).
    Removing stm32f0xx_hal_pwr.o(i.HAL_PWR_EnterSTANDBYMode), (40 bytes).
    Removing stm32f0xx_hal_pwr.o(i.HAL_PWR_EnterSTOPMode), (72 bytes).
    Removing stm32f0xx_hal_flash.o(.rev16_text), (4 bytes).
    Removing stm32f0xx_hal_flash.o(.revsh_text), (4 bytes).
    Removing stm32f0xx_hal_flash.o(i.FLASH_Program_HalfWord), (32 bytes).
    Removing stm32f0xx_hal_flash.o(i.FLASH_SetErrorCode), (64 bytes).
    Removing stm32f0xx_hal_flash.o(i.FLASH_WaitForLastOperation), (104 bytes).
    Removing stm32f0xx_hal_flash.o(i.HAL_FLASH_EndOfOperationCallback), (2 bytes).
    Removing stm32f0xx_hal_flash.o(i.HAL_FLASH_GetError), (12 bytes).
    Removing stm32f0xx_hal_flash.o(i.HAL_FLASH_IRQHandler), (384 bytes).
    Removing stm32f0xx_hal_flash.o(i.HAL_FLASH_Lock), (20 bytes).
    Removing stm32f0xx_hal_flash.o(i.HAL_FLASH_OB_Launch), (32 bytes).
    Removing stm32f0xx_hal_flash.o(i.HAL_FLASH_OB_Lock), (24 bytes).
    Removing stm32f0xx_hal_flash.o(i.HAL_FLASH_OB_Unlock), (48 bytes).
    Removing stm32f0xx_hal_flash.o(i.HAL_FLASH_OperationErrorCallback), (2 bytes).
    Removing stm32f0xx_hal_flash.o(i.HAL_FLASH_Program), (188 bytes).
    Removing stm32f0xx_hal_flash.o(i.HAL_FLASH_Program_IT), (120 bytes).
    Removing stm32f0xx_hal_flash.o(i.HAL_FLASH_Unlock), (44 bytes).
    Removing stm32f0xx_hal_flash.o(.bss), (32 bytes).
    Removing stm32f0xx_hal_cortex.o(.rev16_text), (4 bytes).
    Removing stm32f0xx_hal_cortex.o(.revsh_text), (4 bytes).
    Removing stm32f0xx_hal_cortex.o(i.HAL_NVIC_ClearPendingIRQ), (24 bytes).
    Removing stm32f0xx_hal_cortex.o(i.HAL_NVIC_DisableIRQ), (24 bytes).
    Removing stm32f0xx_hal_cortex.o(i.HAL_NVIC_GetPendingIRQ), (40 bytes).
    Removing stm32f0xx_hal_cortex.o(i.HAL_NVIC_GetPriority), (72 bytes).
    Removing stm32f0xx_hal_cortex.o(i.HAL_NVIC_SetPendingIRQ), (24 bytes).
    Removing stm32f0xx_hal_cortex.o(i.HAL_NVIC_SystemReset), (56 bytes).
    Removing stm32f0xx_hal_cortex.o(i.HAL_SYSTICK_CLKSourceConfig), (36 bytes).
    Removing stm32f0xx_hal_cortex.o(i.HAL_SYSTICK_Callback), (2 bytes).
    Removing stm32f0xx_hal_cortex.o(i.HAL_SYSTICK_IRQHandler), (8 bytes).
    Removing stm32f0xx_hal_pwr_ex.o(.rev16_text), (4 bytes).
    Removing stm32f0xx_hal_pwr_ex.o(.revsh_text), (4 bytes).
    Removing stm32f0xx_hal_pwr_ex.o(i.HAL_PWREx_DisableVddio2Monitor), (40 bytes).
    Removing stm32f0xx_hal_pwr_ex.o(i.HAL_PWREx_EnableVddio2Monitor), (32 bytes).
    Removing stm32f0xx_hal_pwr_ex.o(i.HAL_PWREx_Vddio2MonitorCallback), (2 bytes).
    Removing stm32f0xx_hal_pwr_ex.o(i.HAL_PWREx_Vddio2Monitor_IRQHandler), (32 bytes).
    Removing stm32f0xx_hal_pwr_ex.o(i.HAL_PWR_ConfigPVD), (176 bytes).
    Removing stm32f0xx_hal_pwr_ex.o(i.HAL_PWR_DisablePVD), (20 bytes).
    Removing stm32f0xx_hal_pwr_ex.o(i.HAL_PWR_EnablePVD), (20 bytes).
    Removing stm32f0xx_hal_pwr_ex.o(i.HAL_PWR_PVDCallback), (2 bytes).
    Removing stm32f0xx_hal_pwr_ex.o(i.HAL_PWR_PVD_IRQHandler), (36 bytes).
    Removing stm32f0xx_hal_uart.o(.rev16_text), (4 bytes).
    Removing stm32f0xx_hal_uart.o(.revsh_text), (4 bytes).
    Removing stm32f0xx_hal_uart.o(i.HAL_HalfDuplex_EnableReceiver), (74 bytes).
    Removing stm32f0xx_hal_uart.o(i.HAL_HalfDuplex_EnableTransmitter), (74 bytes).
    Removing stm32f0xx_hal_uart.o(i.HAL_HalfDuplex_Init), (132 bytes).
    Removing stm32f0xx_hal_uart.o(i.HAL_MultiProcessor_DisableMuteMode), (58 bytes).
    Removing stm32f0xx_hal_uart.o(i.HAL_MultiProcessor_EnableMuteMode), (58 bytes).
    Removing stm32f0xx_hal_uart.o(i.HAL_MultiProcessor_EnterMuteMode), (14 bytes).
    Removing stm32f0xx_hal_uart.o(i.HAL_MultiProcessor_Init), (164 bytes).
    Removing stm32f0xx_hal_uart.o(i.HAL_UART_DMAPause), (114 bytes).
    Removing stm32f0xx_hal_uart.o(i.HAL_UART_DMAResume), (126 bytes).
    Removing stm32f0xx_hal_uart.o(i.HAL_UART_DMAStop), (62 bytes).
    Removing stm32f0xx_hal_uart.o(i.HAL_UART_DeInit), (72 bytes).
    Removing stm32f0xx_hal_uart.o(i.HAL_UART_GetError), (6 bytes).
    Removing stm32f0xx_hal_uart.o(i.HAL_UART_GetState), (8 bytes).
    Removing stm32f0xx_hal_uart.o(i.HAL_UART_MspDeInit), (2 bytes).
    Removing stm32f0xx_hal_uart.o(i.HAL_UART_MspInit), (2 bytes).
    Removing stm32f0xx_hal_uart.o(i.HAL_UART_Receive_IT), (244 bytes).
    Removing stm32f0xx_hal_uart.o(i.HAL_UART_RxCpltCallback), (2 bytes).
    Removing stm32f0xx_hal_uart.o(i.HAL_UART_Transmit_DMA), (180 bytes).
    Removing stm32f0xx_hal_uart.o(i.HAL_UART_TxCpltCallback), (2 bytes).
    Removing stm32f0xx_hal_uart.o(i.HAL_UART_TxHalfCpltCallback), (2 bytes).
    Removing stm32f0xx_hal_uart.o(i.UART_DMATransmitCplt), (58 bytes).
    Removing stm32f0xx_hal_uart.o(i.UART_DMATxHalfCplt), (14 bytes).
    Removing stm32f0xx_hal_dma.o(.rev16_text), (4 bytes).
    Removing stm32f0xx_hal_dma.o(.revsh_text), (4 bytes).
    Removing stm32f0xx_hal_dma.o(i.HAL_DMA_Abort), (100 bytes).
    Removing stm32f0xx_hal_dma.o(i.HAL_DMA_DeInit), (1128 bytes).
    Removing stm32f0xx_hal_dma.o(i.HAL_DMA_GetError), (6 bytes).
    Removing stm32f0xx_hal_dma.o(i.HAL_DMA_GetState), (8 bytes).
    Removing stm32f0xx_hal_dma.o(i.HAL_DMA_PollForTransfer), (1920 bytes).
    Removing stm32f0xx_hal_dma.o(i.HAL_DMA_Start), (78 bytes).
    Removing stm32f0xx_hal_rcc_ex.o(.rev16_text), (4 bytes).
    Removing stm32f0xx_hal_rcc_ex.o(.revsh_text), (4 bytes).
    Removing stm32f0xx_hal_rcc_ex.o(i.HAL_RCCEx_CRSConfig), (176 bytes).
    Removing stm32f0xx_hal_rcc_ex.o(i.HAL_RCCEx_CRSGetSynchronizationInfo), (48 bytes).
    Removing stm32f0xx_hal_rcc_ex.o(i.HAL_RCCEx_CRSSoftwareSynchronizationGenerate), (20 bytes).
    Removing stm32f0xx_hal_rcc_ex.o(i.HAL_RCCEx_CRSWaitSynchronization), (216 bytes).
    Removing stm32f0xx_hal_rcc_ex.o(i.HAL_RCCEx_GetPeriphCLKConfig), (108 bytes).
    Removing stm32f0xx_hal_rcc_ex.o(i.HAL_RCCEx_GetPeriphCLKFreq), (532 bytes).
    Removing stm32f0xx_hal.o(.rev16_text), (4 bytes).
    Removing stm32f0xx_hal.o(.revsh_text), (4 bytes).
    Removing stm32f0xx_hal.o(i.HAL_DBGMCU_DisableDBGStandbyMode), (20 bytes).
    Removing stm32f0xx_hal.o(i.HAL_DBGMCU_DisableDBGStopMode), (20 bytes).
    Removing stm32f0xx_hal.o(i.HAL_DBGMCU_EnableDBGStandbyMode), (20 bytes).
    Removing stm32f0xx_hal.o(i.HAL_DBGMCU_EnableDBGStopMode), (20 bytes).
    Removing stm32f0xx_hal.o(i.HAL_DeInit), (44 bytes).
    Removing stm32f0xx_hal.o(i.HAL_GetDEVID), (16 bytes).
    Removing stm32f0xx_hal.o(i.HAL_GetHalVersion), (8 bytes).
    Removing stm32f0xx_hal.o(i.HAL_GetREVID), (12 bytes).
    Removing stm32f0xx_hal.o(i.HAL_MspDeInit), (2 bytes).
    Removing stm32f0xx_hal.o(i.HAL_ResumeTick), (20 bytes).
    Removing stm32f0xx_hal.o(i.HAL_SuspendTick), (20 bytes).
    Removing stm32f0xx_hal_gpio.o(.rev16_text), (4 bytes).
    Removing stm32f0xx_hal_gpio.o(.revsh_text), (4 bytes).
    Removing stm32f0xx_hal_gpio.o(i.HAL_GPIO_DeInit), (280 bytes).
    Removing stm32f0xx_hal_gpio.o(i.HAL_GPIO_EXTI_Callback), (2 bytes).
    Removing stm32f0xx_hal_gpio.o(i.HAL_GPIO_EXTI_IRQHandler), (32 bytes).
    Removing stm32f0xx_hal_gpio.o(i.HAL_GPIO_LockPin), (50 bytes).
    Removing stm32f0xx_hal_gpio.o(i.HAL_GPIO_ReadPin), (18 bytes).
    Removing stm32f0xx_hal_uart_ex.o(.rev16_text), (4 bytes).
    Removing stm32f0xx_hal_uart_ex.o(.revsh_text), (4 bytes).
    Removing stm32f0xx_hal_uart_ex.o(i.HAL_LIN_Init), (174 bytes).
    Removing stm32f0xx_hal_uart_ex.o(i.HAL_LIN_SendBreak), (60 bytes).
    Removing stm32f0xx_hal_uart_ex.o(i.HAL_MultiProcessorEx_AddressLength_Set), (66 bytes).
    Removing stm32f0xx_hal_uart_ex.o(i.HAL_RS485Ex_Init), (160 bytes).
    Removing stm32f0xx_hal_uart_ex.o(i.HAL_UARTEx_DisableStopMode), (60 bytes).
    Removing stm32f0xx_hal_uart_ex.o(i.HAL_UARTEx_EnableStopMode), (60 bytes).
    Removing stm32f0xx_hal_uart_ex.o(i.HAL_UARTEx_StopModeWakeUpSourceConfig), (140 bytes).
    Removing stm32f0xx_hal_uart_ex.o(i.UARTEx_Wakeup_AddressConfig), (42 bytes).
    Removing stm32f0xx_hal_tim.o(.rev16_text), (4 bytes).
    Removing stm32f0xx_hal_tim.o(.revsh_text), (4 bytes).
    Removing stm32f0xx_hal_tim.o(i.HAL_TIM_Base_DeInit), (80 bytes).
    Removing stm32f0xx_hal_tim.o(i.HAL_TIM_Base_GetState), (8 bytes).
    Removing stm32f0xx_hal_tim.o(i.HAL_TIM_Base_MspDeInit), (2 bytes).
    Removing stm32f0xx_hal_tim.o(i.HAL_TIM_Base_Start_DMA), (108 bytes).
    Removing stm32f0xx_hal_tim.o(i.HAL_TIM_Base_Start_IT), (30 bytes).
    Removing stm32f0xx_hal_tim.o(i.HAL_TIM_Base_Stop_DMA), (72 bytes).
    Removing stm32f0xx_hal_tim.o(i.HAL_TIM_Base_Stop_IT), (64 bytes).
    Removing stm32f0xx_hal_tim.o(i.HAL_TIM_ConfigClockSource), (318 bytes).
    Removing stm32f0xx_hal_tim.o(i.HAL_TIM_ConfigOCrefClear), (292 bytes).
    Removing stm32f0xx_hal_tim.o(i.HAL_TIM_ConfigTI1Input), (34 bytes).
    Removing stm32f0xx_hal_tim.o(i.HAL_TIM_DMABurst_ReadStart), (400 bytes).
    Removing stm32f0xx_hal_tim.o(i.HAL_TIM_DMABurst_ReadStop), (146 bytes).
    Removing stm32f0xx_hal_tim.o(i.HAL_TIM_DMABurst_WriteStart), (400 bytes).
    Removing stm32f0xx_hal_tim.o(i.HAL_TIM_DMABurst_WriteStop), (146 bytes).
    Removing stm32f0xx_hal_tim.o(i.HAL_TIM_Encoder_DeInit), (80 bytes).
    Removing stm32f0xx_hal_tim.o(i.HAL_TIM_Encoder_GetState), (8 bytes).
    Removing stm32f0xx_hal_tim.o(i.HAL_TIM_Encoder_Init), (196 bytes).
    Removing stm32f0xx_hal_tim.o(i.HAL_TIM_Encoder_MspDeInit), (2 bytes).
    Removing stm32f0xx_hal_tim.o(i.HAL_TIM_Encoder_MspInit), (2 bytes).
    Removing stm32f0xx_hal_tim.o(i.HAL_TIM_Encoder_Start), (80 bytes).
    Removing stm32f0xx_hal_tim.o(i.HAL_TIM_Encoder_Start_DMA), (336 bytes).
    Removing stm32f0xx_hal_tim.o(i.HAL_TIM_Encoder_Start_IT), (128 bytes).
    Removing stm32f0xx_hal_tim.o(i.HAL_TIM_Encoder_Stop), (112 bytes).
    Removing stm32f0xx_hal_tim.o(i.HAL_TIM_Encoder_Stop_DMA), (168 bytes).
    Removing stm32f0xx_hal_tim.o(i.HAL_TIM_Encoder_Stop_IT), (160 bytes).
    Removing stm32f0xx_hal_tim.o(i.HAL_TIM_ErrorCallback), (2 bytes).
    Removing stm32f0xx_hal_tim.o(i.HAL_TIM_GenerateEvent), (54 bytes).
    Removing stm32f0xx_hal_tim.o(i.HAL_TIM_IC_ConfigChannel), (226 bytes).
    Removing stm32f0xx_hal_tim.o(i.HAL_TIM_IC_DeInit), (80 bytes).
    Removing stm32f0xx_hal_tim.o(i.HAL_TIM_IC_GetState), (8 bytes).
    Removing stm32f0xx_hal_tim.o(i.HAL_TIM_IC_Init), (56 bytes).
    Removing stm32f0xx_hal_tim.o(i.HAL_TIM_IC_MspDeInit), (2 bytes).
    Removing stm32f0xx_hal_tim.o(i.HAL_TIM_IC_MspInit), (2 bytes).
    Removing stm32f0xx_hal_tim.o(i.HAL_TIM_IC_Start), (32 bytes).
    Removing stm32f0xx_hal_tim.o(i.HAL_TIM_IC_Start_DMA), (276 bytes).
    Removing stm32f0xx_hal_tim.o(i.HAL_TIM_IC_Start_IT), (110 bytes).
    Removing stm32f0xx_hal_tim.o(i.HAL_TIM_IC_Stop), (64 bytes).
    Removing stm32f0xx_hal_tim.o(i.HAL_TIM_IC_Stop_DMA), (156 bytes).
    Removing stm32f0xx_hal_tim.o(i.HAL_TIM_IC_Stop_IT), (144 bytes).
    Removing stm32f0xx_hal_tim.o(i.HAL_TIM_OC_ConfigChannel), (118 bytes).
    Removing stm32f0xx_hal_tim.o(i.HAL_TIM_OC_DeInit), (80 bytes).
    Removing stm32f0xx_hal_tim.o(i.HAL_TIM_OC_GetState), (8 bytes).
    Removing stm32f0xx_hal_tim.o(i.HAL_TIM_OC_Init), (56 bytes).
    Removing stm32f0xx_hal_tim.o(i.HAL_TIM_OC_MspDeInit), (2 bytes).
    Removing stm32f0xx_hal_tim.o(i.HAL_TIM_OC_MspInit), (2 bytes).
    Removing stm32f0xx_hal_tim.o(i.HAL_TIM_OC_Start), (104 bytes).
    Removing stm32f0xx_hal_tim.o(i.HAL_TIM_OC_Start_DMA), (348 bytes).
    Removing stm32f0xx_hal_tim.o(i.HAL_TIM_OC_Start_IT), (184 bytes).
    Removing stm32f0xx_hal_tim.o(i.HAL_TIM_OC_Stop), (164 bytes).
    Removing stm32f0xx_hal_tim.o(i.HAL_TIM_OC_Stop_DMA), (256 bytes).
    Removing stm32f0xx_hal_tim.o(i.HAL_TIM_OC_Stop_IT), (244 bytes).
    Removing stm32f0xx_hal_tim.o(i.HAL_TIM_OnePulse_ConfigChannel), (298 bytes).
    Removing stm32f0xx_hal_tim.o(i.HAL_TIM_OnePulse_DeInit), (80 bytes).
    Removing stm32f0xx_hal_tim.o(i.HAL_TIM_OnePulse_GetState), (8 bytes).
    Removing stm32f0xx_hal_tim.o(i.HAL_TIM_OnePulse_Init), (80 bytes).
    Removing stm32f0xx_hal_tim.o(i.HAL_TIM_OnePulse_MspDeInit), (2 bytes).
    Removing stm32f0xx_hal_tim.o(i.HAL_TIM_OnePulse_MspInit), (2 bytes).
    Removing stm32f0xx_hal_tim.o(i.HAL_TIM_OnePulse_Start), (104 bytes).
    Removing stm32f0xx_hal_tim.o(i.HAL_TIM_OnePulse_Start_IT), (128 bytes).
    Removing stm32f0xx_hal_tim.o(i.HAL_TIM_OnePulse_Stop), (176 bytes).
    Removing stm32f0xx_hal_tim.o(i.HAL_TIM_OnePulse_Stop_IT), (200 bytes).
    Removing stm32f0xx_hal_tim.o(i.HAL_TIM_PWM_ConfigChannel), (274 bytes).
    Removing stm32f0xx_hal_tim.o(i.HAL_TIM_PWM_DeInit), (80 bytes).
    Removing stm32f0xx_hal_tim.o(i.HAL_TIM_PWM_GetState), (8 bytes).
    Removing stm32f0xx_hal_tim.o(i.HAL_TIM_PWM_Init), (56 bytes).
    Removing stm32f0xx_hal_tim.o(i.HAL_TIM_PWM_MspDeInit), (2 bytes).
    Removing stm32f0xx_hal_tim.o(i.HAL_TIM_PWM_MspInit), (2 bytes).
    Removing stm32f0xx_hal_tim.o(i.HAL_TIM_PWM_Start), (104 bytes).
    Removing stm32f0xx_hal_tim.o(i.HAL_TIM_PWM_Start_DMA), (348 bytes).
    Removing stm32f0xx_hal_tim.o(i.HAL_TIM_PWM_Start_IT), (184 bytes).
    Removing stm32f0xx_hal_tim.o(i.HAL_TIM_PWM_Stop), (172 bytes).
    Removing stm32f0xx_hal_tim.o(i.HAL_TIM_PWM_Stop_DMA), (256 bytes).
    Removing stm32f0xx_hal_tim.o(i.HAL_TIM_PWM_Stop_IT), (244 bytes).
    Removing stm32f0xx_hal_tim.o(i.HAL_TIM_ReadCapturedValue), (88 bytes).
    Removing stm32f0xx_hal_tim.o(i.HAL_TIM_SlaveConfigSynchronization), (88 bytes).
    Removing stm32f0xx_hal_tim.o(i.HAL_TIM_SlaveConfigSynchronization_IT), (88 bytes).
    Removing stm32f0xx_hal_tim.o(i.TIM_CCxChannelCmd), (28 bytes).
    Removing stm32f0xx_hal_tim.o(i.TIM_DMACaptureCplt), (70 bytes).
    Removing stm32f0xx_hal_tim.o(i.TIM_DMADelayPulseCplt), (70 bytes).
    Removing stm32f0xx_hal_tim.o(i.TIM_DMAError), (20 bytes).
    Removing stm32f0xx_hal_tim.o(i.TIM_DMAPeriodElapsedCplt), (20 bytes).
    Removing stm32f0xx_hal_tim.o(i.TIM_DMATriggerCplt), (20 bytes).
    Removing stm32f0xx_hal_tim.o(i.TIM_ETR_SetConfig), (30 bytes).
    Removing stm32f0xx_hal_tim.o(i.TIM_ITRx_SetConfig), (26 bytes).
    Removing stm32f0xx_hal_tim.o(i.TIM_OC1_SetConfig), (180 bytes).
    Removing stm32f0xx_hal_tim.o(i.TIM_OC2_SetConfig), (200 bytes).
    Removing stm32f0xx_hal_tim.o(i.TIM_OC3_SetConfig), (196 bytes).
    Removing stm32f0xx_hal_tim.o(i.TIM_OC4_SetConfig), (136 bytes).
    Removing stm32f0xx_hal_tim.o(i.TIM_SlaveTimer_SetConfig), (172 bytes).
    Removing stm32f0xx_hal_tim.o(i.TIM_TI1_ConfigInputStage), (54 bytes).
    Removing stm32f0xx_hal_tim.o(i.TIM_TI1_SetConfig), (120 bytes).
    Removing stm32f0xx_hal_tim.o(i.TIM_TI2_ConfigInputStage), (54 bytes).
    Removing stm32f0xx_hal_tim.o(i.TIM_TI2_SetConfig), (76 bytes).
    Removing stm32f0xx_hal_tim.o(i.TIM_TI3_SetConfig), (74 bytes).
    Removing stm32f0xx_hal_tim.o(i.TIM_TI4_SetConfig), (82 bytes).
    Removing stm32f0xx_hal_tim_ex.o(.rev16_text), (4 bytes).
    Removing stm32f0xx_hal_tim_ex.o(.revsh_text), (4 bytes).
    Removing stm32f0xx_hal_tim_ex.o(i.HAL_TIMEx_ConfigBreakDeadTime), (80 bytes).
    Removing stm32f0xx_hal_tim_ex.o(i.HAL_TIMEx_ConfigCommutationEvent), (112 bytes).
    Removing stm32f0xx_hal_tim_ex.o(i.HAL_TIMEx_ConfigCommutationEvent_DMA), (148 bytes).
    Removing stm32f0xx_hal_tim_ex.o(i.HAL_TIMEx_ConfigCommutationEvent_IT), (124 bytes).
    Removing stm32f0xx_hal_tim_ex.o(i.HAL_TIMEx_HallSensor_DeInit), (80 bytes).
    Removing stm32f0xx_hal_tim_ex.o(i.HAL_TIMEx_HallSensor_GetState), (8 bytes).
    Removing stm32f0xx_hal_tim_ex.o(i.HAL_TIMEx_HallSensor_Init), (212 bytes).
    Removing stm32f0xx_hal_tim_ex.o(i.HAL_TIMEx_HallSensor_MspDeInit), (2 bytes).
    Removing stm32f0xx_hal_tim_ex.o(i.HAL_TIMEx_HallSensor_MspInit), (2 bytes).
    Removing stm32f0xx_hal_tim_ex.o(i.HAL_TIMEx_HallSensor_Start), (30 bytes).
    Removing stm32f0xx_hal_tim_ex.o(i.HAL_TIMEx_HallSensor_Start_DMA), (120 bytes).
    Removing stm32f0xx_hal_tim_ex.o(i.HAL_TIMEx_HallSensor_Start_IT), (42 bytes).
    Removing stm32f0xx_hal_tim_ex.o(i.HAL_TIMEx_HallSensor_Stop), (64 bytes).
    Removing stm32f0xx_hal_tim_ex.o(i.HAL_TIMEx_HallSensor_Stop_DMA), (76 bytes).
    Removing stm32f0xx_hal_tim_ex.o(i.HAL_TIMEx_HallSensor_Stop_IT), (76 bytes).
    Removing stm32f0xx_hal_tim_ex.o(i.HAL_TIMEx_OCN_Start), (46 bytes).
    Removing stm32f0xx_hal_tim_ex.o(i.HAL_TIMEx_OCN_Start_DMA), (292 bytes).
    Removing stm32f0xx_hal_tim_ex.o(i.HAL_TIMEx_OCN_Start_IT), (136 bytes).
    Removing stm32f0xx_hal_tim_ex.o(i.HAL_TIMEx_OCN_Stop), (108 bytes).
    Removing stm32f0xx_hal_tim_ex.o(i.HAL_TIMEx_OCN_Stop_DMA), (200 bytes).
    Removing stm32f0xx_hal_tim_ex.o(i.HAL_TIMEx_OCN_Stop_IT), (216 bytes).
    Removing stm32f0xx_hal_tim_ex.o(i.HAL_TIMEx_OnePulseN_Start), (34 bytes).
    Removing stm32f0xx_hal_tim_ex.o(i.HAL_TIMEx_OnePulseN_Start_IT), (58 bytes).
    Removing stm32f0xx_hal_tim_ex.o(i.HAL_TIMEx_OnePulseN_Stop), (108 bytes).
    Removing stm32f0xx_hal_tim_ex.o(i.HAL_TIMEx_OnePulseN_Stop_IT), (132 bytes).
    Removing stm32f0xx_hal_tim_ex.o(i.HAL_TIMEx_PWMN_Start), (46 bytes).
    Removing stm32f0xx_hal_tim_ex.o(i.HAL_TIMEx_PWMN_Start_DMA), (292 bytes).
    Removing stm32f0xx_hal_tim_ex.o(i.HAL_TIMEx_PWMN_Start_IT), (136 bytes).
    Removing stm32f0xx_hal_tim_ex.o(i.HAL_TIMEx_PWMN_Stop), (108 bytes).
    Removing stm32f0xx_hal_tim_ex.o(i.HAL_TIMEx_PWMN_Stop_DMA), (200 bytes).
    Removing stm32f0xx_hal_tim_ex.o(i.HAL_TIMEx_PWMN_Stop_IT), (216 bytes).
    Removing stm32f0xx_hal_tim_ex.o(i.HAL_TIMEx_RemapConfig), (46 bytes).
    Removing stm32f0xx_hal_tim_ex.o(i.TIMEx_DMACommutationCplt), (20 bytes).
    Removing stm32f0xx_hal_tim_ex.o(i.TIM_CCxNChannelCmd), (28 bytes).
    Removing stm32f0xx_hal_adc.o(.rev16_text), (4 bytes).
    Removing stm32f0xx_hal_adc.o(.revsh_text), (4 bytes).
    Removing stm32f0xx_hal_adc.o(i.ADC_DMAConvCplt), (134 bytes).
    Removing stm32f0xx_hal_adc.o(i.ADC_DMAError), (30 bytes).
    Removing stm32f0xx_hal_adc.o(i.ADC_DMAHalfConvCplt), (14 bytes).
    Removing stm32f0xx_hal_adc.o(i.HAL_ADC_AnalogWDGConfig), (212 bytes).
    Removing stm32f0xx_hal_adc.o(i.HAL_ADC_ConvCpltCallback), (2 bytes).
    Removing stm32f0xx_hal_adc.o(i.HAL_ADC_ConvHalfCpltCallback), (2 bytes).
    Removing stm32f0xx_hal_adc.o(i.HAL_ADC_DeInit), (184 bytes).
    Removing stm32f0xx_hal_adc.o(i.HAL_ADC_ErrorCallback), (2 bytes).
    Removing stm32f0xx_hal_adc.o(i.HAL_ADC_GetError), (6 bytes).
    Removing stm32f0xx_hal_adc.o(i.HAL_ADC_GetState), (6 bytes).
    Removing stm32f0xx_hal_adc.o(i.HAL_ADC_IRQHandler), (278 bytes).
    Removing stm32f0xx_hal_adc.o(i.HAL_ADC_LevelOutOfWindowCallback), (2 bytes).
    Removing stm32f0xx_hal_adc.o(i.HAL_ADC_MspDeInit), (2 bytes).
    Removing stm32f0xx_hal_adc.o(i.HAL_ADC_MspInit), (2 bytes).
    Removing stm32f0xx_hal_adc.o(i.HAL_ADC_PollForEvent), (138 bytes).
    Removing stm32f0xx_hal_adc.o(i.HAL_ADC_Start_DMA), (192 bytes).
    Removing stm32f0xx_hal_adc.o(i.HAL_ADC_Start_IT), (168 bytes).
    Removing stm32f0xx_hal_adc.o(i.HAL_ADC_Stop_DMA), (136 bytes).
    Removing stm32f0xx_hal_adc.o(i.HAL_ADC_Stop_IT), (92 bytes).
    Removing aos.o(.rev16_text), (4 bytes).
    Removing aos.o(.revsh_text), (4 bytes).
    Removing aos.o(i.startPerEvent), (24 bytes).
    Removing aos_pd_usart.o(.rev16_text), (4 bytes).
    Removing aos_pd_usart.o(.revsh_text), (4 bytes).
    Removing aos_pd_usart.o(i.readPxITMutex), (56 bytes).
    Removing aos_pd_gpio.o(.rev16_text), (4 bytes).
    Removing aos_pd_gpio.o(.revsh_text), (4 bytes).
    Removing aos_pd_gpio.o(.data), (169 bytes).
    Removing aos_pd_adc.o(.rev16_text), (4 bytes).
    Removing aos_pd_adc.o(.revsh_text), (4 bytes).
    Removing aos_pd_adc.o(i.HAL_ADC_MspDeInit), (48 bytes).
    Removing aos_pd_adc.o(.data), (169 bytes).
    Removing aos_pd_dma.o(.rev16_text), (4 bytes).
    Removing aos_pd_dma.o(.revsh_text), (4 bytes).
    Removing aos_pd_dma.o(i.DownlinkDMA2_Setup), (424 bytes).
    Removing aos_pd_dma.o(i.DownlinkDMA3_Setup), (396 bytes).
    Removing aos_pd_dma.o(i.UplinkDMA2_Setup), (436 bytes).
    Removing aos_pd_dma.o(.data), (169 bytes).
    Removing aos_cli.o(.rev16_text), (4 bytes).
    Removing aos_cli.o(.revsh_text), (4 bytes).
    Removing event_groups.o(i.prvTestWaitCondition), (34 bytes).
    Removing event_groups.o(i.uxEventGroupGetNumber), (14 bytes).
    Removing event_groups.o(i.vEventGroupClearBitsCallback), (16 bytes).
    Removing event_groups.o(i.vEventGroupDelete), (68 bytes).
    Removing event_groups.o(i.vEventGroupSetBitsCallback), (16 bytes).
    Removing event_groups.o(i.xEventGroupGetBitsFromISR), (24 bytes).
    Removing event_groups.o(privileged_functions), (812 bytes).
    Removing tasks.o(i.vTaskNotifyGiveFromISR), (172 bytes).
    Removing tasks.o(i.xTaskNotifyFromISR), (240 bytes).
    Removing tasks.o(i.xTaskNotifyWait), (188 bytes).
    Removing cmsis_os.o(i.makeCmsisPriority), (18 bytes).
    Removing cmsis_os.o(i.makeFreeRtosPriority), (14 bytes).
    Removing cmsis_os.o(i.osDelayUntil), (6 bytes).
    Removing cmsis_os.o(i.osKernelRunning), (18 bytes).
    Removing cmsis_os.o(i.osKernelSysTick), (22 bytes).
    Removing cmsis_os.o(i.osMailAlloc), (24 bytes).
    Removing cmsis_os.o(i.osMailCAlloc), (38 bytes).
    Removing cmsis_os.o(i.osMailCreate), (126 bytes).
    Removing cmsis_os.o(i.osMailFree), (24 bytes).
    Removing cmsis_os.o(i.osMailGet), (160 bytes).
    Removing cmsis_os.o(i.osMailPut), (92 bytes).
    Removing cmsis_os.o(i.osMessageCreate), (18 bytes).
    Removing cmsis_os.o(i.osMessageGet), (164 bytes).
    Removing cmsis_os.o(i.osMessagePeek), (98 bytes).
    Removing cmsis_os.o(i.osMessagePut), (96 bytes).
    Removing cmsis_os.o(i.osMutexCreate), (12 bytes).
    Removing cmsis_os.o(i.osMutexDelete), (26 bytes).
    Removing cmsis_os.o(i.osMutexRelease), (76 bytes).
    Removing cmsis_os.o(i.osMutexWait), (112 bytes).
    Removing cmsis_os.o(i.osPoolAlloc), (108 bytes).
    Removing cmsis_os.o(i.osPoolCAlloc), (28 bytes).
    Removing cmsis_os.o(i.osPoolCreate), (114 bytes).
    Removing cmsis_os.o(i.osPoolFree), (82 bytes).
    Removing cmsis_os.o(i.osRecursiveMutexCreate), (12 bytes).
    Removing cmsis_os.o(i.osRecursiveMutexRelease), (22 bytes).
    Removing cmsis_os.o(i.osRecursiveMutexWait), (58 bytes).
    Removing cmsis_os.o(i.osSemaphoreDelete), (26 bytes).
    Removing cmsis_os.o(i.osSignalSet), (84 bytes).
    Removing cmsis_os.o(i.osSignalWait), (112 bytes).
    Removing cmsis_os.o(i.osThreadCreate), (58 bytes).
    Removing cmsis_os.o(i.osThreadGetId), (8 bytes).
    Removing cmsis_os.o(i.osThreadGetPriority), (40 bytes).
    Removing cmsis_os.o(i.osThreadList), (14 bytes).
    Removing cmsis_os.o(i.osThreadResume), (44 bytes).
    Removing cmsis_os.o(i.osThreadResumeAll), (18 bytes).
    Removing cmsis_os.o(i.osThreadSetPriority), (26 bytes).
    Removing cmsis_os.o(i.osThreadSuspend), (14 bytes).
    Removing cmsis_os.o(i.osThreadSuspendAll), (10 bytes).
    Removing cmsis_os.o(i.osThreadTerminate), (14 bytes).
    Removing cmsis_os.o(i.osThreadYield), (10 bytes).
    Removing cmsis_os.o(i.osTimerCreate), (6 bytes).
    Removing cmsis_os.o(i.osTimerDelete), (8 bytes).
    Removing cmsis_os.o(i.osTimerStart), (8 bytes).
    Removing cmsis_os.o(i.osTimerStop), (8 bytes).
    Removing uart-interrupt-driven-command-console.o(.rev16_text), (4 bytes).
    Removing uart-interrupt-driven-command-console.o(.revsh_text), (4 bytes).
    Removing startup_stm32f091xc.o(HEAP), (49152 bytes).

392 unused section(s) (total 82566 bytes) removed from the image.

==============================================================================

Image Symbol Table

    Local Symbols

    Symbol Name                              Value     Ov Type        Size  Object(Section)

    ../Drivers/CMSIS/Device/ST/STM32F0xx/Source/Templates/arm/startup_stm32f091xc.s 0x00000000   Number         0  startup_stm32f091xc.o ABSOLUTE
    ../Drivers/CMSIS/Device/ST/STM32F0xx/Source/Templates/system_stm32f0xx.c 0x00000000   Number         0  system_stm32f0xx.o ABSOLUTE
    ../Drivers/STM32F0xx_HAL_Driver/Src/stm32f0xx_hal.c 0x00000000   Number         0  stm32f0xx_hal.o ABSOLUTE
    ../Drivers/STM32F0xx_HAL_Driver/Src/stm32f0xx_hal_cortex.c 0x00000000   Number         0  stm32f0xx_hal_cortex.o ABSOLUTE
    ../Drivers/STM32F0xx_HAL_Driver/Src/stm32f0xx_hal_dma.c 0x00000000   Number         0  stm32f0xx_hal_dma.o ABSOLUTE
    ../Drivers/STM32F0xx_HAL_Driver/Src/stm32f0xx_hal_flash.c 0x00000000   Number         0  stm32f0xx_hal_flash.o ABSOLUTE
    ../Drivers/STM32F0xx_HAL_Driver/Src/stm32f0xx_hal_flash_ex.c 0x00000000   Number         0  stm32f0xx_hal_flash_ex.o ABSOLUTE
    ../Drivers/STM32F0xx_HAL_Driver/Src/stm32f0xx_hal_gpio.c 0x00000000   Number         0  stm32f0xx_hal_gpio.o ABSOLUTE
    ../Drivers/STM32F0xx_HAL_Driver/Src/stm32f0xx_hal_pwr.c 0x00000000   Number         0  stm32f0xx_hal_pwr.o ABSOLUTE
    ../Drivers/STM32F0xx_HAL_Driver/Src/stm32f0xx_hal_pwr_ex.c 0x00000000   Number         0  stm32f0xx_hal_pwr_ex.o ABSOLUTE
    ../Drivers/STM32F0xx_HAL_Driver/Src/stm32f0xx_hal_rcc.c 0x00000000   Number         0  stm32f0xx_hal_rcc.o ABSOLUTE
    ../Drivers/STM32F0xx_HAL_Driver/Src/stm32f0xx_hal_rcc_ex.c 0x00000000   Number         0  stm32f0xx_hal_rcc_ex.o ABSOLUTE
    ../Drivers/STM32F0xx_HAL_Driver/Src/stm32f0xx_hal_uart.c 0x00000000   Number         0  stm32f0xx_hal_uart.o ABSOLUTE
    ../Drivers/STM32F0xx_HAL_Driver/Src/stm32f0xx_hal_uart_ex.c 0x00000000   Number         0  stm32f0xx_hal_uart_ex.o ABSOLUTE
    ../Middlewares/Third_Party/FreeRTOS/Source/CMSIS_RTOS/cmsis_os.c 0x00000000   Number         0  cmsis_os.o ABSOLUTE
    ../Middlewares/Third_Party/FreeRTOS/Source/croutine.c 0x00000000   Number         0  croutine.o ABSOLUTE
    ../Middlewares/Third_Party/FreeRTOS/Source/event_groups.c 0x00000000   Number         0  event_groups.o ABSOLUTE
    ../Middlewares/Third_Party/FreeRTOS/Source/list.c 0x00000000   Number         0  list.o ABSOLUTE
    ../Middlewares/Third_Party/FreeRTOS/Source/portable/MemMang/heap_4.c 0x00000000   Number         0  heap_4.o ABSOLUTE
    ../Middlewares/Third_Party/FreeRTOS/Source/portable/RVDS/ARM_CM0/port.c 0x00000000   Number         0  port.o ABSOLUTE
    ../Middlewares/Third_Party/FreeRTOS/Source/queue.c 0x00000000   Number         0  queue.o ABSOLUTE
    ../Middlewares/Third_Party/FreeRTOS/Source/tasks.c 0x00000000   Number         0  tasks.o ABSOLUTE
    ../Middlewares/Third_Party/FreeRTOS/Source/timers.c 0x00000000   Number         0  timers.o ABSOLUTE
    ../Src/freertos.c                        0x00000000   Number         0  freertos.o ABSOLUTE
    ../Src/main.c                            0x00000000   Number         0  main.o ABSOLUTE
    ../Src/stm32f0xx_it.c                    0x00000000   Number         0  stm32f0xx_it.o ABSOLUTE
    ../clib/../cmprslib/lz77c.c              0x00000000   Number         0  __dclz77c.o ABSOLUTE
    ../clib/microlib/ctype/ctype.c           0x00000000   Number         0  isblank_o.o ABSOLUTE
    ../clib/microlib/ctype/ctype.c           0x00000000   Number         0  isalnum_o.o ABSOLUTE
    ../clib/microlib/ctype/ctype.c           0x00000000   Number         0  ispunct_o.o ABSOLUTE
    ../clib/microlib/ctype/ctype.c           0x00000000   Number         0  isxdigit_o.o ABSOLUTE
    ../clib/microlib/ctype/ctype.c           0x00000000   Number         0  isspace_c.o ABSOLUTE
    ../clib/microlib/ctype/ctype.c           0x00000000   Number         0  isalpha_o.o ABSOLUTE
    ../clib/microlib/ctype/ctype.c           0x00000000   Number         0  ctype_o.o ABSOLUTE
    ../clib/microlib/ctype/ctype.c           0x00000000   Number         0  isspace_o.o ABSOLUTE
    ../clib/microlib/ctype/ctype.c           0x00000000   Number         0  iscntrl_o.o ABSOLUTE
    ../clib/microlib/ctype/ctype.c           0x00000000   Number         0  isupper_o.o ABSOLUTE
    ../clib/microlib/ctype/ctype.c           0x00000000   Number         0  ctype_c.o ABSOLUTE
    ../clib/microlib/ctype/ctype.c           0x00000000   Number         0  isgraph_o.o ABSOLUTE
    ../clib/microlib/ctype/ctype.c           0x00000000   Number         0  isdigit_o.o ABSOLUTE
    ../clib/microlib/ctype/ctype.c           0x00000000   Number         0  islower_o.o ABSOLUTE
    ../clib/microlib/ctype/ctype.c           0x00000000   Number         0  isprint_o.o ABSOLUTE
    ../clib/microlib/division.c              0x00000000   Number         0  uidiv.o ABSOLUTE
    ../clib/microlib/division.c              0x00000000   Number         0  uldiv.o ABSOLUTE
    ../clib/microlib/errno.c                 0x00000000   Number         0  errno.o ABSOLUTE
    ../clib/microlib/init/entry.s            0x00000000   Number         0  entry7a.o ABSOLUTE
    ../clib/microlib/init/entry.s            0x00000000   Number         0  entry5.o ABSOLUTE
    ../clib/microlib/init/entry.s            0x00000000   Number         0  entry2.o ABSOLUTE
    ../clib/microlib/init/entry.s            0x00000000   Number         0  entry.o ABSOLUTE
    ../clib/microlib/init/entry.s            0x00000000   Number         0  entry11b.o ABSOLUTE
    ../clib/microlib/init/entry.s            0x00000000   Number         0  entry11a.o ABSOLUTE
    ../clib/microlib/init/entry.s            0x00000000   Number         0  entry10b.o ABSOLUTE
    ../clib/microlib/init/entry.s            0x00000000   Number         0  entry10a.o ABSOLUTE
    ../clib/microlib/init/entry.s            0x00000000   Number         0  entry9b.o ABSOLUTE
    ../clib/microlib/init/entry.s            0x00000000   Number         0  entry9a.o ABSOLUTE
    ../clib/microlib/init/entry.s            0x00000000   Number         0  entry8b.o ABSOLUTE
    ../clib/microlib/init/entry.s            0x00000000   Number         0  entry8a.o ABSOLUTE
    ../clib/microlib/init/entry.s            0x00000000   Number         0  entry7b.o ABSOLUTE
    ../clib/microlib/longlong.c              0x00000000   Number         0  llshl.o ABSOLUTE
    ../clib/microlib/longlong.c              0x00000000   Number         0  llsshr.o ABSOLUTE
    ../clib/microlib/longlong.c              0x00000000   Number         0  llushr.o ABSOLUTE
    ../clib/microlib/longlong.c              0x00000000   Number         0  llmul.o ABSOLUTE
    ../clib/microlib/printf/printf.c         0x00000000   Number         0  printf8.o ABSOLUTE
    ../clib/microlib/printf/printf.c         0x00000000   Number         0  printfb.o ABSOLUTE
    ../clib/microlib/printf/printf.c         0x00000000   Number         0  printfa.o ABSOLUTE
    ../clib/microlib/printf/printf.c         0x00000000   Number         0  printf1.o ABSOLUTE
    ../clib/microlib/printf/printf.c         0x00000000   Number         0  printf6.o ABSOLUTE
    ../clib/microlib/printf/printf.c         0x00000000   Number         0  printf7.o ABSOLUTE
    ../clib/microlib/printf/printf.c         0x00000000   Number         0  printf5.o ABSOLUTE
    ../clib/microlib/printf/printf.c         0x00000000   Number         0  printf4.o ABSOLUTE
    ../clib/microlib/printf/printf.c         0x00000000   Number         0  printf3.o ABSOLUTE
    ../clib/microlib/printf/printf.c         0x00000000   Number         0  printf2.o ABSOLUTE
    ../clib/microlib/printf/printf.c         0x00000000   Number         0  printf0.o ABSOLUTE
    ../clib/microlib/printf/stubs.s          0x00000000   Number         0  stubs.o ABSOLUTE
    ../clib/microlib/stdio/fputc.c           0x00000000   Number         0  fputc.o ABSOLUTE
    ../clib/microlib/stdio/semi.s            0x00000000   Number         0  semi.o ABSOLUTE
    ../clib/microlib/stdio/streams.c         0x00000000   Number         0  stdout.o ABSOLUTE
    ../clib/microlib/stdlib/rand.c           0x00000000   Number         0  rand.o ABSOLUTE
    ../clib/microlib/string/memcmp.c         0x00000000   Number         0  memcmp.o ABSOLUTE
    ../clib/microlib/string/memcpy.c         0x00000000   Number         0  memcpya.o ABSOLUTE
    ../clib/microlib/string/memcpy.c         0x00000000   Number         0  memcpyb.o ABSOLUTE
    ../clib/microlib/string/memset.c         0x00000000   Number         0  memseta.o ABSOLUTE
    ../clib/microlib/string/strcat.c         0x00000000   Number         0  strcat.o ABSOLUTE
    ../clib/microlib/string/strcmp.c         0x00000000   Number         0  strcmp.o ABSOLUTE
    ../clib/microlib/string/strcpy.c         0x00000000   Number         0  strcpy.o ABSOLUTE
    ../clib/microlib/string/strlen.c         0x00000000   Number         0  strlen.o ABSOLUTE
    ../clib/microlib/string/strncmp.c        0x00000000   Number         0  strncmp.o ABSOLUTE
    ../clib/microlib/string/strncpy.c        0x00000000   Number         0  strncpy.o ABSOLUTE
    ../clib/microlib/stubs.s                 0x00000000   Number         0  iusesemip.o ABSOLUTE
    ../clib/microlib/stubs.s                 0x00000000   Number         0  iusefp.o ABSOLUTE
    ../clib/scanf.c                          0x00000000   Number         0  _strtoul.o ABSOLUTE
    ../clib/scanf.c                          0x00000000   Number         0  atol.o ABSOLUTE
    ../clib/scanf.c                          0x00000000   Number         0  strtod.o ABSOLUTE
    ../clib/scanf.c                          0x00000000   Number         0  atoi.o ABSOLUTE
    ../clib/scanf.c                          0x00000000   Number         0  strtol.o ABSOLUTE
    ../clib/scanf.c                          0x00000000   Number         0  _chval.o ABSOLUTE
    ../clib/scanf.c                          0x00000000   Number         0  _sgetc.o ABSOLUTE
    ../clib/scanf.c                          0x00000000   Number         0  scanf_fp.o ABSOLUTE
    ../fplib/microlib/d2f.c                  0x00000000   Number         0  d2f.o ABSOLUTE
    ../fplib/microlib/f2d.c                  0x00000000   Number         0  f2d.o ABSOLUTE
    ../fplib/microlib/fpadd.c                0x00000000   Number         0  dadd.o ABSOLUTE
    ../fplib/microlib/fpdiv.c                0x00000000   Number         0  ddiv.o ABSOLUTE
    ../fplib/microlib/fpepilogue.c           0x00000000   Number         0  fepilogue.o ABSOLUTE
    ../fplib/microlib/fpepilogue.c           0x00000000   Number         0  depilogue.o ABSOLUTE
    ../fplib/microlib/fpfix.c                0x00000000   Number         0  dfixul.o ABSOLUTE
    ../fplib/microlib/fpflt.c                0x00000000   Number         0  dfltul.o ABSOLUTE
    ../fplib/microlib/fpmul.c                0x00000000   Number         0  dmul.o ABSOLUTE
    ../mathlib/atof.c                        0x00000000   Number         0  atof.o ABSOLUTE
    ..\Drivers\AOS\aos.c                     0x00000000   Number         0  aos.o ABSOLUTE
    ..\Drivers\AOS\aos_cli.c                 0x00000000   Number         0  aos_cli.o ABSOLUTE
    ..\Drivers\AOS\aos_pd_adc.c              0x00000000   Number         0  aos_pd_adc.o ABSOLUTE
    ..\Drivers\AOS\aos_pd_dma.c              0x00000000   Number         0  aos_pd_dma.o ABSOLUTE
    ..\Drivers\AOS\aos_pd_gpio.c             0x00000000   Number         0  aos_pd_gpio.o ABSOLUTE
    ..\Drivers\AOS\aos_pd_usart.c            0x00000000   Number         0  aos_pd_usart.o ABSOLUTE
    ..\Drivers\CMSIS\Device\ST\STM32F0xx\Source\Templates\system_stm32f0xx.c 0x00000000   Number         0  system_stm32f0xx.o ABSOLUTE
    ..\Drivers\STM32F0xx_HAL_Driver\Src\stm32f0xx_hal.c 0x00000000   Number         0  stm32f0xx_hal.o ABSOLUTE
    ..\Drivers\STM32F0xx_HAL_Driver\Src\stm32f0xx_hal_adc.c 0x00000000   Number         0  stm32f0xx_hal_adc.o ABSOLUTE
    ..\Drivers\STM32F0xx_HAL_Driver\Src\stm32f0xx_hal_cortex.c 0x00000000   Number         0  stm32f0xx_hal_cortex.o ABSOLUTE
    ..\Drivers\STM32F0xx_HAL_Driver\Src\stm32f0xx_hal_dma.c 0x00000000   Number         0  stm32f0xx_hal_dma.o ABSOLUTE
    ..\Drivers\STM32F0xx_HAL_Driver\Src\stm32f0xx_hal_flash.c 0x00000000   Number         0  stm32f0xx_hal_flash.o ABSOLUTE
    ..\Drivers\STM32F0xx_HAL_Driver\Src\stm32f0xx_hal_flash_ex.c 0x00000000   Number         0  stm32f0xx_hal_flash_ex.o ABSOLUTE
    ..\Drivers\STM32F0xx_HAL_Driver\Src\stm32f0xx_hal_gpio.c 0x00000000   Number         0  stm32f0xx_hal_gpio.o ABSOLUTE
    ..\Drivers\STM32F0xx_HAL_Driver\Src\stm32f0xx_hal_pwr.c 0x00000000   Number         0  stm32f0xx_hal_pwr.o ABSOLUTE
    ..\Drivers\STM32F0xx_HAL_Driver\Src\stm32f0xx_hal_pwr_ex.c 0x00000000   Number         0  stm32f0xx_hal_pwr_ex.o ABSOLUTE
    ..\Drivers\STM32F0xx_HAL_Driver\Src\stm32f0xx_hal_rcc.c 0x00000000   Number         0  stm32f0xx_hal_rcc.o ABSOLUTE
    ..\Drivers\STM32F0xx_HAL_Driver\Src\stm32f0xx_hal_rcc_ex.c 0x00000000   Number         0  stm32f0xx_hal_rcc_ex.o ABSOLUTE
    ..\Drivers\STM32F0xx_HAL_Driver\Src\stm32f0xx_hal_tim.c 0x00000000   Number         0  stm32f0xx_hal_tim.o ABSOLUTE
    ..\Drivers\STM32F0xx_HAL_Driver\Src\stm32f0xx_hal_tim_ex.c 0x00000000   Number         0  stm32f0xx_hal_tim_ex.o ABSOLUTE
    ..\Drivers\STM32F0xx_HAL_Driver\Src\stm32f0xx_hal_uart.c 0x00000000   Number         0  stm32f0xx_hal_uart.o ABSOLUTE
    ..\Drivers\STM32F0xx_HAL_Driver\Src\stm32f0xx_hal_uart_ex.c 0x00000000   Number         0  stm32f0xx_hal_uart_ex.o ABSOLUTE
    ..\Middlewares\Third_Party\FreeRTOS\Source\FreeRTOS_CLI.c 0x00000000   Number         0  freertos_cli.o ABSOLUTE
    ..\Middlewares\Third_Party\FreeRTOS\Source\UART-interrupt-driven-command-console.c 0x00000000   Number         0  uart-interrupt-driven-command-console.o ABSOLUTE
    ..\Middlewares\Third_Party\FreeRTOS\Source\portable\RVDS\ARM_CM0\port.c 0x00000000   Number         0  port.o ABSOLUTE
    ..\Src\freertos.c                        0x00000000   Number         0  freertos.o ABSOLUTE
    ..\Src\main.c                            0x00000000   Number         0  main.o ABSOLUTE
    ..\Src\stm32f0xx_it.c                    0x00000000   Number         0  stm32f0xx_it.o ABSOLUTE
    ..\\Drivers\\AOS\\aos.c                  0x00000000   Number         0  aos.o ABSOLUTE
    ..\\Drivers\\AOS\\aos_cli.c              0x00000000   Number         0  aos_cli.o ABSOLUTE
    ..\\Drivers\\AOS\\aos_pd_adc.c           0x00000000   Number         0  aos_pd_adc.o ABSOLUTE
    ..\\Drivers\\AOS\\aos_pd_dma.c           0x00000000   Number         0  aos_pd_dma.o ABSOLUTE
    ..\\Drivers\\AOS\\aos_pd_gpio.c          0x00000000   Number         0  aos_pd_gpio.o ABSOLUTE
    ..\\Drivers\\AOS\\aos_pd_usart.c         0x00000000   Number         0  aos_pd_usart.o ABSOLUTE
    ..\\Drivers\\STM32F0xx_HAL_Driver\\Src\\stm32f0xx_hal_adc.c 0x00000000   Number         0  stm32f0xx_hal_adc.o ABSOLUTE
    ..\\Drivers\\STM32F0xx_HAL_Driver\\Src\\stm32f0xx_hal_tim.c 0x00000000   Number         0  stm32f0xx_hal_tim.o ABSOLUTE
    ..\\Drivers\\STM32F0xx_HAL_Driver\\Src\\stm32f0xx_hal_tim_ex.c 0x00000000   Number         0  stm32f0xx_hal_tim_ex.o ABSOLUTE
    ..\\Middlewares\\Third_Party\\FreeRTOS\\Source\\UART-interrupt-driven-command-console.c 0x00000000   Number         0  uart-interrupt-driven-command-console.o ABSOLUTE
    cdrcmple.s                               0x00000000   Number         0  cdrcmple.o ABSOLUTE
    cfcmple.s                                0x00000000   Number         0  cfcmple.o ABSOLUTE
    dc.s                                     0x00000000   Number         0  dc.o ABSOLUTE
    handlers.s                               0x00000000   Number         0  handlers.o ABSOLUTE
    init.s                                   0x00000000   Number         0  init.o ABSOLUTE
    RESET                                    0x08000000   Section      188  startup_stm32f091xc.o(RESET)
    .ARM.Collect$$$$00000000                 0x080000bc   Section        0  entry.o(.ARM.Collect$$$$00000000)
    .ARM.Collect$$$$00000001                 0x080000bc   Section        4  entry2.o(.ARM.Collect$$$$00000001)
    .ARM.Collect$$$$00000004                 0x080000c0   Section        4  entry5.o(.ARM.Collect$$$$00000004)
    .ARM.Collect$$$$00000008                 0x080000c4   Section        0  entry7b.o(.ARM.Collect$$$$00000008)
    .ARM.Collect$$$$0000000A                 0x080000c4   Section        0  entry8b.o(.ARM.Collect$$$$0000000A)
    .ARM.Collect$$$$0000000B                 0x080000c4   Section        8  entry9a.o(.ARM.Collect$$$$0000000B)
    .ARM.Collect$$$$0000000D                 0x080000cc   Section        0  entry10a.o(.ARM.Collect$$$$0000000D)
    .ARM.Collect$$$$0000000F                 0x080000cc   Section        0  entry11a.o(.ARM.Collect$$$$0000000F)
    .ARM.Collect$$$$00002712                 0x080000cc   Section        4  entry2.o(.ARM.Collect$$$$00002712)
    __lit__00000000                          0x080000cc   Data           4  entry2.o(.ARM.Collect$$$$00002712)
    .emb_text                                0x080000d0   Section      112  port.o(.emb_text)
    .text                                    0x08000140   Section       88  startup_stm32f091xc.o(.text)
    .text                                    0x08000198   Section        0  uidiv.o(.text)
    .text                                    0x080001c4   Section        0  llushr.o(.text)
    .text                                    0x080001e8   Section        0  rand.o(.text)
    .text                                    0x0800020c   Section        0  memcpya.o(.text)
    .text                                    0x08000230   Section        0  memseta.o(.text)
    .text                                    0x08000254   Section        0  strcat.o(.text)
    .text                                    0x0800026c   Section        0  strncpy.o(.text)
    .text                                    0x08000286   Section        0  strlen.o(.text)
    .text                                    0x08000294   Section        0  strcmp.o(.text)
    .text                                    0x080002b0   Section        0  memcmp.o(.text)
    .text                                    0x080002ca   Section        0  strcpy.o(.text)
    .text                                    0x080002dc   Section        0  strncmp.o(.text)
    .text                                    0x080002fa   Section        0  atoi.o(.text)
    .text                                    0x08000314   Section        0  atol.o(.text)
    .text                                    0x0800032e   Section        0  f2d.o(.text)
    .text                                    0x08000356   Section        0  d2f.o(.text)
    .text                                    0x08000390   Section       20  cfcmple.o(.text)
    .text                                    0x080003a4   Section        0  uldiv.o(.text)
    .text                                    0x08000404   Section        0  strtod.o(.text)
    _local_sscanf                            0x08000405   Thumb Code    54  strtod.o(.text)
    .text                                    0x080004a8   Section        0  strtol.o(.text)
    .text                                    0x08000518   Section        0  iusefp.o(.text)
    .text                                    0x08000518   Section        0  fepilogue.o(.text)
    .text                                    0x0800059c   Section        0  dadd.o(.text)
    .text                                    0x08000700   Section        0  dmul.o(.text)
    .text                                    0x080007d0   Section        0  ddiv.o(.text)
    .text                                    0x080008c0   Section        0  dfixul.o(.text)
    .text                                    0x08000900   Section       40  cdrcmple.o(.text)
    .text                                    0x08000928   Section       36  init.o(.text)
    .text                                    0x0800094c   Section        0  llshl.o(.text)
    .text                                    0x0800096c   Section        0  llsshr.o(.text)
    .text                                    0x08000994   Section        0  ctype_o.o(.text)
    .text                                    0x0800099c   Section        0  isspace_o.o(.text)
    .text                                    0x080009b0   Section        0  scanf_fp.o(.text)
    _fp_value                                0x080009b1   Thumb Code   246  scanf_fp.o(.text)
    .text                                    0x08000cfc   Section        0  _sgetc.o(.text)
    .text                                    0x08000d40   Section        0  _strtoul.o(.text)
    .text                                    0x08000de6   Section        0  depilogue.o(.text)
    .text                                    0x08000ea4   Section        0  llmul.o(.text)
    .text                                    0x08000f1e   Section        0  _chval.o(.text)
    .text                                    0x08000f3c   Section        0  dfltul.o(.text)
    .text                                    0x08000f58   Section        0  __dclz77c.o(.text)
    i.ADC_ConversionStop                     0x08000fb8   Section        0  stm32f0xx_hal_adc.o(i.ADC_ConversionStop)
    ADC_ConversionStop                       0x08000fb9   Thumb Code   108  stm32f0xx_hal_adc.o(i.ADC_ConversionStop)
    i.ADC_Disable                            0x08001024   Section        0  stm32f0xx_hal_adc.o(i.ADC_Disable)
    ADC_Disable                              0x08001025   Thumb Code   170  stm32f0xx_hal_adc.o(i.ADC_Disable)
    i.ADC_Enable                             0x080010d0   Section        0  stm32f0xx_hal_adc.o(i.ADC_Enable)
    ADC_Enable                               0x080010d1   Thumb Code   198  stm32f0xx_hal_adc.o(i.ADC_Enable)
    i.AOS_init                               0x080011a4   Section        0  aos.o(i.AOS_init)
    i.DMA1_Ch1_IRQHandler                    0x08001248   Section        0  stm32f0xx_it.o(i.DMA1_Ch1_IRQHandler)
    i.DMA1_Ch2_3_DMA2_Ch1_2_IRQHandler       0x080013a8   Section        0  stm32f0xx_it.o(i.DMA1_Ch2_3_DMA2_Ch1_2_IRQHandler)
    i.DMA1_Ch4_7_DMA2_Ch3_5_IRQHandler       0x080013e8   Section        0  stm32f0xx_it.o(i.DMA1_Ch4_7_DMA2_Ch3_5_IRQHandler)
    i.DMA_SetConfig                          0x08001428   Section        0  stm32f0xx_hal_dma.o(i.DMA_SetConfig)
    DMA_SetConfig                            0x08001429   Thumb Code    32  stm32f0xx_hal_dma.o(i.DMA_SetConfig)
    i.DownlinkDMA1_Init                      0x08001448   Section        0  aos_pd_dma.o(i.DownlinkDMA1_Init)
    i.DownlinkDMA1_Setup                     0x0800147c   Section        0  aos_pd_dma.o(i.DownlinkDMA1_Setup)
    i.DownlinkDMA2_Init                      0x08001628   Section        0  aos_pd_dma.o(i.DownlinkDMA2_Init)
    i.DownlinkDMA3_Init                      0x0800165c   Section        0  aos_pd_dma.o(i.DownlinkDMA3_Init)
    i.FreeRTOS_CLIGetOutputBuffer            0x08001690   Section        0  freertos_cli.o(i.FreeRTOS_CLIGetOutputBuffer)
    i.FreeRTOS_CLIGetParameter               0x08001698   Section        0  freertos_cli.o(i.FreeRTOS_CLIGetParameter)
    i.FreeRTOS_CLIProcessCommand             0x08001700   Section        0  freertos_cli.o(i.FreeRTOS_CLIProcessCommand)
    i.FreeRTOS_CLIRegisterCommand            0x080017dc   Section        0  freertos_cli.o(i.FreeRTOS_CLIRegisterCommand)
    i.FrontEndTask                           0x08001824   Section        0  main.o(i.FrontEndTask)
    i.GetPort                                0x08001838   Section        0  aos.o(i.GetPort)
    i.GetUart                                0x080018a0   Section        0  aos.o(i.GetUart)
    i.HAL_ADC_ConfigChannel                  0x080018e8   Section        0  stm32f0xx_hal_adc.o(i.HAL_ADC_ConfigChannel)
    i.HAL_ADC_GetValue                       0x08001a94   Section        0  stm32f0xx_hal_adc.o(i.HAL_ADC_GetValue)
    i.HAL_ADC_Init                           0x08001aa4   Section        0  stm32f0xx_hal_adc.o(i.HAL_ADC_Init)
    i.HAL_ADC_MspInit                        0x08001c54   Section        0  aos_pd_adc.o(i.HAL_ADC_MspInit)
    i.HAL_ADC_PollForConversion              0x08001ca4   Section        0  stm32f0xx_hal_adc.o(i.HAL_ADC_PollForConversion)
    i.HAL_ADC_Start                          0x08001d88   Section        0  stm32f0xx_hal_adc.o(i.HAL_ADC_Start)
    i.HAL_ADC_Stop                           0x08001e00   Section        0  stm32f0xx_hal_adc.o(i.HAL_ADC_Stop)
    i.HAL_DMA_IRQHandler                     0x08001e50   Section        0  stm32f0xx_hal_dma.o(i.HAL_DMA_IRQHandler)
    i.HAL_DMA_Init                           0x0800276c   Section        0  stm32f0xx_hal_dma.o(i.HAL_DMA_Init)
    i.HAL_DMA_Start_IT                       0x080027c8   Section        0  stm32f0xx_hal_dma.o(i.HAL_DMA_Start_IT)
    i.HAL_Delay                              0x0800283a   Section        0  stm32f0xx_hal.o(i.HAL_Delay)
    i.HAL_GPIO_Init                          0x08002854   Section        0  stm32f0xx_hal_gpio.o(i.HAL_GPIO_Init)
    i.HAL_GPIO_TogglePin                     0x08002a50   Section        0  stm32f0xx_hal_gpio.o(i.HAL_GPIO_TogglePin)
    i.HAL_GPIO_WritePin                      0x08002a58   Section        0  stm32f0xx_hal_gpio.o(i.HAL_GPIO_WritePin)
    i.HAL_GetTick                            0x08002a64   Section        0  stm32f0xx_hal.o(i.HAL_GetTick)
    i.HAL_IncTick                            0x08002a70   Section        0  stm32f0xx_hal.o(i.HAL_IncTick)
    i.HAL_Init                               0x08002a80   Section        0  stm32f0xx_hal.o(i.HAL_Init)
    i.HAL_InitTick                           0x08002aa0   Section        0  stm32f0xx_hal.o(i.HAL_InitTick)
    i.HAL_MspInit                            0x08002ac6   Section        0  stm32f0xx_hal.o(i.HAL_MspInit)
    i.HAL_NVIC_EnableIRQ                     0x08002ac8   Section        0  stm32f0xx_hal_cortex.o(i.HAL_NVIC_EnableIRQ)
    i.HAL_NVIC_SetPriority                   0x08002ae0   Section        0  stm32f0xx_hal_cortex.o(i.HAL_NVIC_SetPriority)
    i.HAL_RCCEx_PeriphCLKConfig              0x08002af4   Section        0  stm32f0xx_hal_rcc_ex.o(i.HAL_RCCEx_PeriphCLKConfig)
    i.HAL_RCC_ClockConfig                    0x08002c70   Section        0  stm32f0xx_hal_rcc.o(i.HAL_RCC_ClockConfig)
    i.HAL_RCC_GetHCLKFreq                    0x08002f3c   Section        0  stm32f0xx_hal_rcc.o(i.HAL_RCC_GetHCLKFreq)
    i.HAL_RCC_GetPCLK1Freq                   0x08002f68   Section        0  stm32f0xx_hal_rcc.o(i.HAL_RCC_GetPCLK1Freq)
    i.HAL_RCC_GetSysClockFreq                0x08002f8c   Section        0  stm32f0xx_hal_rcc.o(i.HAL_RCC_GetSysClockFreq)
    i.HAL_RCC_OscConfig                      0x0800307c   Section        0  stm32f0xx_hal_rcc.o(i.HAL_RCC_OscConfig)
    i.HAL_SYSTICK_Config                     0x080036d8   Section        0  stm32f0xx_hal_cortex.o(i.HAL_SYSTICK_Config)
    i.HAL_TIMEx_BreakCallback                0x08003710   Section        0  stm32f0xx_hal_tim_ex.o(i.HAL_TIMEx_BreakCallback)
    i.HAL_TIMEx_CommutationCallback          0x08003712   Section        0  stm32f0xx_hal_tim_ex.o(i.HAL_TIMEx_CommutationCallback)
    i.HAL_TIMEx_MasterConfigSynchronization  0x08003714   Section        0  stm32f0xx_hal_tim_ex.o(i.HAL_TIMEx_MasterConfigSynchronization)
    i.HAL_TIM_Base_Init                      0x08003776   Section        0  stm32f0xx_hal_tim.o(i.HAL_TIM_Base_Init)
    i.HAL_TIM_Base_MspInit                   0x080037ae   Section        0  stm32f0xx_hal_tim.o(i.HAL_TIM_Base_MspInit)
    i.HAL_TIM_Base_Start                     0x080037b0   Section        0  stm32f0xx_hal_tim.o(i.HAL_TIM_Base_Start)
    i.HAL_TIM_Base_Stop                      0x080037d0   Section        0  stm32f0xx_hal_tim.o(i.HAL_TIM_Base_Stop)
    i.HAL_TIM_IC_CaptureCallback             0x08003810   Section        0  stm32f0xx_hal_tim.o(i.HAL_TIM_IC_CaptureCallback)
    i.HAL_TIM_IRQHandler                     0x08003812   Section        0  stm32f0xx_hal_tim.o(i.HAL_TIM_IRQHandler)
    i.HAL_TIM_OC_DelayElapsedCallback        0x080039da   Section        0  stm32f0xx_hal_tim.o(i.HAL_TIM_OC_DelayElapsedCallback)
    i.HAL_TIM_PWM_PulseFinishedCallback      0x080039dc   Section        0  stm32f0xx_hal_tim.o(i.HAL_TIM_PWM_PulseFinishedCallback)
    i.HAL_TIM_PeriodElapsedCallback          0x080039de   Section        0  stm32f0xx_hal_tim.o(i.HAL_TIM_PeriodElapsedCallback)
    i.HAL_TIM_TriggerCallback                0x080039e0   Section        0  stm32f0xx_hal_tim.o(i.HAL_TIM_TriggerCallback)
    i.HAL_UARTEx_WakeupCallback              0x080039e2   Section        0  stm32f0xx_hal_uart_ex.o(i.HAL_UARTEx_WakeupCallback)
    i.HAL_UART_ErrorCallback                 0x080039e4   Section        0  stm32f0xx_hal_uart.o(i.HAL_UART_ErrorCallback)
    i.HAL_UART_IRQHandler                    0x080039e6   Section        0  stm32f0xx_hal_uart_ex.o(i.HAL_UART_IRQHandler)
    i.HAL_UART_Init                          0x08003b34   Section        0  stm32f0xx_hal_uart.o(i.HAL_UART_Init)
    i.HAL_UART_MspInit                       0x08003bb8   Section        0  aos_pd_usart.o(i.HAL_UART_MspInit)
    i.HAL_UART_Receive                       0x08003e88   Section        0  stm32f0xx_hal_uart.o(i.HAL_UART_Receive)
    i.HAL_UART_Receive_DMA                   0x08003fd4   Section        0  stm32f0xx_hal_uart.o(i.HAL_UART_Receive_DMA)
    i.HAL_UART_RxCpltCallback                0x08004080   Section        0  stm32f0xx_it.o(i.HAL_UART_RxCpltCallback)
    i.HAL_UART_RxHalfCpltCallback            0x080040ac   Section        0  stm32f0xx_hal_uart.o(i.HAL_UART_RxHalfCpltCallback)
    i.HAL_UART_Transmit                      0x080040ae   Section        0  stm32f0xx_hal_uart.o(i.HAL_UART_Transmit)
    i.HAL_UART_Transmit_IT                   0x0800419c   Section        0  stm32f0xx_hal_uart.o(i.HAL_UART_Transmit_IT)
    i.HAL_UART_TxCpltCallback                0x08004220   Section        0  stm32f0xx_it.o(i.HAL_UART_TxCpltCallback)
    i.IND_LED_Init                           0x0800424c   Section        0  aos_pd_gpio.o(i.IND_LED_Init)
    i.MX_ADC_Init                            0x08004270   Section        0  aos_pd_adc.o(i.MX_ADC_Init)
    i.MX_DMA_Init                            0x080042c0   Section        0  aos_pd_dma.o(i.MX_DMA_Init)
    i.MX_FREERTOS_Init                       0x08004314   Section        0  freertos.o(i.MX_FREERTOS_Init)
    i.MX_GPIO_Init                           0x080044c4   Section        0  aos_pd_gpio.o(i.MX_GPIO_Init)
    i.MX_TIM2_Init                           0x0800454c   Section        0  aos.o(i.MX_TIM2_Init)
    i.MX_TIM7_Init                           0x080045ac   Section        0  aos.o(i.MX_TIM7_Init)
    i.MX_UART_Init                           0x08004600   Section        0  aos_pd_usart.o(i.MX_UART_Init)
    i.MX_USART1_UART_Init                    0x0800461c   Section        0  aos_pd_usart.o(i.MX_USART1_UART_Init)
    i.MX_USART2_UART_Init                    0x08004658   Section        0  aos_pd_usart.o(i.MX_USART2_UART_Init)
    i.MX_USART3_UART_Init                    0x0800469c   Section        0  aos_pd_usart.o(i.MX_USART3_UART_Init)
    i.MX_USART4_UART_Init                    0x080046d8   Section        0  aos_pd_usart.o(i.MX_USART4_UART_Init)
    i.MX_USART7_UART_Init                    0x08004714   Section        0  aos_pd_usart.o(i.MX_USART7_UART_Init)
    i.MX_USART8_UART_Init                    0x08004758   Section        0  aos_pd_usart.o(i.MX_USART8_UART_Init)
    i.NVIC_SetPriority                       0x08004794   Section        0  stm32f0xx_hal_cortex.o(i.NVIC_SetPriority)
    NVIC_SetPriority                         0x08004795   Thumb Code   110  stm32f0xx_hal_cortex.o(i.NVIC_SetPriority)
    i.PxTask                                 0x0800480c   Section        0  freertos.o(i.PxTask)
    i.SVC_Handler                            0x08004868   Section        0  port.o(i.SVC_Handler)
    i.SampleAndForward                       0x0800486c   Section        0  main.o(i.SampleAndForward)
    i.SamplePD                               0x08004924   Section        0  aos_pd_adc.o(i.SamplePD)
    i.StartDefaultTask                       0x08004954   Section        0  freertos.o(i.StartDefaultTask)
    i.StreamSetup                            0x08004960   Section        0  main.o(i.StreamSetup)
    i.SysTick_Handler                        0x0800499c   Section        0  stm32f0xx_it.o(i.SysTick_Handler)
    i.SystemClock_Config                     0x080049a8   Section        0  aos.o(i.SystemClock_Config)
    i.SystemInit                             0x08004a2c   Section        0  system_stm32f0xx.o(i.SystemInit)
    i.TIM2_IRQHandler                        0x08004aa4   Section        0  stm32f0xx_it.o(i.TIM2_IRQHandler)
    i.TIM_Base_SetConfig                     0x08004abc   Section        0  stm32f0xx_hal_tim.o(i.TIM_Base_SetConfig)
    i.UART_AdvFeatureConfig                  0x08004b60   Section        0  stm32f0xx_hal_uart.o(i.UART_AdvFeatureConfig)
    i.UART_CheckIdleState                    0x08004c50   Section        0  stm32f0xx_hal_uart.o(i.UART_CheckIdleState)
    i.UART_DMAError                          0x08004cd4   Section        0  stm32f0xx_hal_uart.o(i.UART_DMAError)
    UART_DMAError                            0x08004cd5   Thumb Code    38  stm32f0xx_hal_uart.o(i.UART_DMAError)
    i.UART_DMAReceiveCplt                    0x08004cfa   Section        0  stm32f0xx_hal_uart.o(i.UART_DMAReceiveCplt)
    UART_DMAReceiveCplt                      0x08004cfb   Thumb Code    66  stm32f0xx_hal_uart.o(i.UART_DMAReceiveCplt)
    i.UART_DMARxHalfCplt                     0x08004d3c   Section        0  stm32f0xx_hal_uart.o(i.UART_DMARxHalfCplt)
    UART_DMARxHalfCplt                       0x08004d3d   Thumb Code    14  stm32f0xx_hal_uart.o(i.UART_DMARxHalfCplt)
    i.UART_EndTransmit_IT                    0x08004d4a   Section        0  stm32f0xx_hal_uart.o(i.UART_EndTransmit_IT)
    i.UART_Receive_IT                        0x08004d86   Section        0  stm32f0xx_hal_uart.o(i.UART_Receive_IT)
    i.UART_SetConfig                         0x08004e30   Section        0  stm32f0xx_hal_uart.o(i.UART_SetConfig)
    i.UART_Transmit_IT                       0x080050ac   Section        0  stm32f0xx_hal_uart.o(i.UART_Transmit_IT)
    i.UART_WaitOnFlagUntilTimeout            0x08005126   Section        0  stm32f0xx_hal_uart.o(i.UART_WaitOnFlagUntilTimeout)
    i.USART1_IRQHandler                      0x08005224   Section        0  stm32f0xx_it.o(i.USART1_IRQHandler)
    i.USART2_IRQHandler                      0x08005244   Section        0  stm32f0xx_it.o(i.USART2_IRQHandler)
    i.USART3_8_IRQHandler                    0x08005264   Section        0  stm32f0xx_it.o(i.USART3_8_IRQHandler)
    i.UplinkDMA1_Init                        0x080052a4   Section        0  aos_pd_dma.o(i.UplinkDMA1_Init)
    i.UplinkDMA1_Setup                       0x080052d4   Section        0  aos_pd_dma.o(i.UplinkDMA1_Setup)
    i.UplinkDMA2_Init                        0x0800546c   Section        0  aos_pd_dma.o(i.UplinkDMA2_Init)
    i.__0sprintf                             0x0800549c   Section        0  printfa.o(i.__0sprintf)
    i.__ARM_clz                              0x080054c4   Section        0  depilogue.o(i.__ARM_clz)
    i.__ARM_common_switch8                   0x080054f2   Section        0  stm32f0xx_hal_tim.o(i.__ARM_common_switch8)
    i.__aeabi_errno_addr                     0x08005510   Section        0  errno.o(i.__aeabi_errno_addr)
    i.__read_errno                           0x08005518   Section        0  errno.o(i.__read_errno)
    i.__scatterload_copy                     0x08005524   Section       14  handlers.o(i.__scatterload_copy)
    i.__scatterload_null                     0x08005532   Section        2  handlers.o(i.__scatterload_null)
    i.__scatterload_zeroinit                 0x08005534   Section       14  handlers.o(i.__scatterload_zeroinit)
    i.__set_errno                            0x08005544   Section        0  errno.o(i.__set_errno)
    i._fp_digits                             0x08005550   Section        0  printfa.o(i._fp_digits)
    _fp_digits                               0x08005551   Thumb Code   316  printfa.o(i._fp_digits)
    i._is_digit                              0x080056a8   Section        0  scanf_fp.o(i._is_digit)
    i._printf_core                           0x080056b8   Section        0  printfa.o(i._printf_core)
    _printf_core                             0x080056b9   Thumb Code  1754  printfa.o(i._printf_core)
    i._printf_post_padding                   0x08005da4   Section        0  printfa.o(i._printf_post_padding)
    _printf_post_padding                     0x08005da5   Thumb Code    32  printfa.o(i._printf_post_padding)
    i._printf_pre_padding                    0x08005dc4   Section        0  printfa.o(i._printf_pre_padding)
    _printf_pre_padding                      0x08005dc5   Thumb Code    44  printfa.o(i._printf_pre_padding)
    i._sputc                                 0x08005df0   Section        0  printfa.o(i._sputc)
    _sputc                                   0x08005df1   Thumb Code    10  printfa.o(i._sputc)
    i.atof                                   0x08005dfa   Section        0  atof.o(i.atof)
    i.bootloaderUpdateCommand                0x08005e24   Section        0  aos_cli.o(i.bootloaderUpdateCommand)
    bootloaderUpdateCommand                  0x08005e25   Thumb Code   120  aos_cli.o(i.bootloaderUpdateCommand)
    i.inHandlerMode                          0x08005ebc   Section        0  cmsis_os.o(i.inHandlerMode)
    inHandlerMode                            0x08005ebd   Thumb Code    18  cmsis_os.o(i.inHandlerMode)
    i.main                                   0x08005ece   Section        0  main.o(i.main)
    i.osDelay                                0x08005ede   Section        0  cmsis_os.o(i.osDelay)
    i.osKernelStart                          0x08005ef8   Section        0  cmsis_os.o(i.osKernelStart)
    i.osSemaphoreCreate                      0x08005f02   Section        0  cmsis_os.o(i.osSemaphoreCreate)
    i.osSemaphoreRelease                     0x08005f38   Section        0  cmsis_os.o(i.osSemaphoreRelease)
    i.osSemaphoreWait                        0x08005f84   Section        0  cmsis_os.o(i.osSemaphoreWait)
    i.osSystickHandler                       0x08005ff4   Section        0  cmsis_os.o(i.osSystickHandler)
    i.pingCommand                            0x08006004   Section        0  aos_cli.o(i.pingCommand)
    pingCommand                              0x08006005   Thumb Code    64  aos_cli.o(i.pingCommand)
    i.prvGetNumberOfParameters               0x0800605c   Section        0  freertos_cli.o(i.prvGetNumberOfParameters)
    prvGetNumberOfParameters                 0x0800605d   Thumb Code    46  freertos_cli.o(i.prvGetNumberOfParameters)
    i.prvHeapInit                            0x0800608c   Section        0  heap_4.o(i.prvHeapInit)
    prvHeapInit                              0x0800608d   Thumb Code   100  heap_4.o(i.prvHeapInit)
    i.prvHelpCommand                         0x08006108   Section        0  freertos_cli.o(i.prvHelpCommand)
    prvHelpCommand                           0x08006109   Thumb Code    66  freertos_cli.o(i.prvHelpCommand)
    i.prvIdleTask                            0x08006154   Section        0  tasks.o(i.prvIdleTask)
    prvIdleTask                              0x08006155   Thumb Code    20  tasks.o(i.prvIdleTask)
    i.prvInsertBlockIntoFreeList             0x0800616c   Section        0  heap_4.o(i.prvInsertBlockIntoFreeList)
    prvInsertBlockIntoFreeList               0x0800616d   Thumb Code    96  heap_4.o(i.prvInsertBlockIntoFreeList)
    i.prvResetNextTaskUnblockTime            0x080061d4   Section        0  tasks.o(i.prvResetNextTaskUnblockTime)
    prvResetNextTaskUnblockTime              0x080061d5   Thumb Code    46  tasks.o(i.prvResetNextTaskUnblockTime)
    i.prvRunTimeStatsCommand                 0x0800620c   Section        0  aos_cli.o(i.prvRunTimeStatsCommand)
    prvRunTimeStatsCommand                   0x0800620d   Thumb Code    44  aos_cli.o(i.prvRunTimeStatsCommand)
    i.prvSetupTimerInterrupt                 0x0800623c   Section        0  port.o(i.prvSetupTimerInterrupt)
    prvSetupTimerInterrupt                   0x0800623d   Thumb Code    26  port.o(i.prvSetupTimerInterrupt)
    i.prvTaskExitError                       0x08006260   Section        0  port.o(i.prvTaskExitError)
    prvTaskExitError                         0x08006261   Thumb Code    32  port.o(i.prvTaskExitError)
    i.prvTaskStatsCommand                    0x08006284   Section        0  aos_cli.o(i.prvTaskStatsCommand)
    prvTaskStatsCommand                      0x08006285   Thumb Code    44  aos_cli.o(i.prvTaskStatsCommand)
    i.prvUARTCommandConsoleTask              0x080062b4   Section        0  uart-interrupt-driven-command-console.o(i.prvUARTCommandConsoleTask)
    prvUARTCommandConsoleTask                0x080062b5   Thumb Code   288  uart-interrupt-driven-command-console.o(i.prvUARTCommandConsoleTask)
    i.prvWriteNameToBuffer                   0x080063ec   Section        0  tasks.o(i.prvWriteNameToBuffer)
    prvWriteNameToBuffer                     0x080063ed   Thumb Code    42  tasks.o(i.prvWriteNameToBuffer)
    i.pvTaskIncrementMutexHeldCount          0x08006418   Section        0  tasks.o(i.pvTaskIncrementMutexHeldCount)
    i.readPxMutex                            0x08006438   Section        0  aos_pd_usart.o(i.readPxMutex)
    i.sampleCommand                          0x08006488   Section        0  aos_cli.o(i.sampleCommand)
    sampleCommand                            0x08006489   Thumb Code    46  aos_cli.o(i.sampleCommand)
    i.setCommand                             0x080064c0   Section        0  aos_cli.o(i.setCommand)
    setCommand                               0x080064c1   Thumb Code   178  aos_cli.o(i.setCommand)
    i.startMicroDelay                        0x080065b8   Section        0  aos.o(i.startMicroDelay)
    i.streamCommand                          0x080065ec   Section        0  aos_cli.o(i.streamCommand)
    streamCommand                            0x080065ed   Thumb Code   342  aos_cli.o(i.streamCommand)
    i.streamTestCommand                      0x08006758   Section        0  aos_cli.o(i.streamTestCommand)
    streamTestCommand                        0x08006759   Thumb Code   348  aos_cli.o(i.streamTestCommand)
    i.ulMainGetRunTimeCounterValue           0x080068cc   Section        0  freertos.o(i.ulMainGetRunTimeCounterValue)
    i.ulTaskNotifyTake                       0x0800692c   Section        0  tasks.o(i.ulTaskNotifyTake)
    i.uxListRemove                           0x080069c8   Section        0  list.o(i.uxListRemove)
    i.uxTaskGetSystemState                   0x080069f0   Section        0  tasks.o(i.uxTaskGetSystemState)
    i.vApplicationMallocFailedHook           0x08006a8c   Section        0  stm32f0xx_it.o(i.vApplicationMallocFailedHook)
    i.vApplicationStackOverflowHook          0x08006a92   Section        0  stm32f0xx_it.o(i.vApplicationStackOverflowHook)
    i.vListInitialise                        0x08006a98   Section        0  list.o(i.vListInitialise)
    i.vListInitialiseItem                    0x08006ab2   Section        0  list.o(i.vListInitialiseItem)
    i.vListInsert                            0x08006ab8   Section        0  list.o(i.vListInsert)
    i.vListInsertEnd                         0x08006aee   Section        0  list.o(i.vListInsertEnd)
    i.vMainConfigureTimerForRunTimeStats     0x08006b08   Section        0  freertos.o(i.vMainConfigureTimerForRunTimeStats)
    i.vPortEnterCritical                     0x08006b28   Section        0  port.o(i.vPortEnterCritical)
    i.vPortExitCritical                      0x08006b44   Section        0  port.o(i.vPortExitCritical)
    i.vPortYield                             0x08006b6c   Section        0  port.o(i.vPortYield)
    i.vRegisterCLICommands                   0x08006b84   Section        0  aos_cli.o(i.vRegisterCLICommands)
    i.vUARTCommandConsoleStart               0x08006bd8   Section        0  uart-interrupt-driven-command-console.o(i.vUARTCommandConsoleStart)
    i.writePxITMutex                         0x08006c08   Section        0  aos_pd_usart.o(i.writePxITMutex)
    i.writePxMutex                           0x08006c40   Section        0  aos_pd_usart.o(i.writePxMutex)
    i.xPortSysTickHandler                    0x08006c90   Section        0  port.o(i.xPortSysTickHandler)
    i.xTaskGenericNotify                     0x08006cb4   Section        0  tasks.o(i.xTaskGenericNotify)
    privileged_functions                     0x08006d88   Section        0  queue.o(privileged_functions)
    prvUnlockQueue                           0x08006e7f   Thumb Code   138  queue.o(privileged_functions)
    prvIsQueueFull                           0x08006f09   Thumb Code    30  queue.o(privileged_functions)
    prvCopyDataToQueue                       0x08006f27   Thumb Code   132  queue.o(privileged_functions)
    prvIsQueueEmpty                          0x0800718d   Thumb Code    28  queue.o(privileged_functions)
    prvCopyDataFromQueue                     0x080071a9   Thumb Code    44  queue.o(privileged_functions)
    privileged_functions                     0x08007728   Section        0  port.o(privileged_functions)
    privileged_functions                     0x0800779c   Section        0  tasks.o(privileged_functions)
    prvInitialiseTaskLists                   0x0800779d   Thumb Code    68  tasks.o(privileged_functions)
    prvInitialiseTCBVariables                0x080077e1   Thumb Code    94  tasks.o(privileged_functions)
    prvAllocateTCBAndStack                   0x0800783f   Thumb Code    70  tasks.o(privileged_functions)
    prvAddCurrentTaskToDelayedList           0x08007c59   Thumb Code    62  tasks.o(privileged_functions)
    prvTaskIsTaskSuspended                   0x08007f85   Thumb Code    74  tasks.o(privileged_functions)
    prvDeleteTCB                             0x080080ef   Thumb Code    18  tasks.o(privileged_functions)
    prvCheckTasksWaitingTermination          0x08008101   Thumb Code    90  tasks.o(privileged_functions)
    prvTaskCheckFreeStackSpace               0x080081c1   Thumb Code    22  tasks.o(privileged_functions)
    prvListTaskWithinSingleList              0x080081d7   Thumb Code   176  tasks.o(privileged_functions)
    privileged_functions                     0x080087e4   Section        0  heap_4.o(privileged_functions)
    .constdata                               0x08008990   Section       16  stm32f0xx_hal_rcc.o(.constdata)
    .constdata                               0x080089a0   Section      128  aos_cli.o(.constdata)
    prvRunTimeStatsCommandDefinition         0x080089a0   Data          16  aos_cli.o(.constdata)
    prvTaskStatsCommandDefinition            0x080089b0   Data          16  aos_cli.o(.constdata)
    pingCommandDefinition                    0x080089c0   Data          16  aos_cli.o(.constdata)
    sampleCommandDefinition                  0x080089d0   Data          16  aos_cli.o(.constdata)
    bootloaderUpdateCommandDefinition        0x080089e0   Data          16  aos_cli.o(.constdata)
    streamCommandDefinition                  0x080089f0   Data          16  aos_cli.o(.constdata)
    streamTestCommandDefinition              0x08008a00   Data          16  aos_cli.o(.constdata)
    setCommandDefinition                     0x08008a10   Data          16  aos_cli.o(.constdata)
    .constdata                               0x08008a20   Section       20  tasks.o(.constdata)
    ucExpectedStackBytes                     0x08008a20   Data          20  tasks.o(.constdata)
    .constdata                               0x08008a34   Section       16  freertos_cli.o(.constdata)
    xHelpCommand                             0x08008a34   Data          16  freertos_cli.o(.constdata)
    .constdata                               0x08008a44   Section      129  ctype_o.o(.constdata)
    .constdata                               0x08008ac8   Section        4  ctype_o.o(.constdata)
    table                                    0x08008ac8   Data           4  ctype_o.o(.constdata)
    .conststring                             0x08008acc   Section     1679  aos_cli.o(.conststring)
    .conststring                             0x0800915c   Section      221  freertos_cli.o(.conststring)
    .conststring                             0x0800923c   Section      741  uart-interrupt-driven-command-console.o(.conststring)
    .data                                    0x20000000   Section      208  freertos.o(.data)
    array                                    0x20000000   Data         168  freertos.o(.data)
    errFlag                                  0x200000a8   Data           1  freertos.o(.data)
    ulClocksPer10thOfAMilliSecond            0x200000ac   Data           4  freertos.o(.data)
    .data                                    0x200000d0   Section      214  main.o(.data)
    array                                    0x200000d0   Data         168  main.o(.data)
    errFlag                                  0x20000178   Data           1  main.o(.data)
    .data                                    0x200001a8   Section       20  system_stm32f0xx.o(.data)
    .data                                    0x200001bc   Section        4  stm32f0xx_hal.o(.data)
    uwTick                                   0x200001bc   Data           4  stm32f0xx_hal.o(.data)
    .data                                    0x200001c0   Section      180  aos.o(.data)
    array                                    0x200001c0   Data         168  aos.o(.data)
    errFlag                                  0x20000268   Data           1  aos.o(.data)
    .data                                    0x20000274   Section      172  aos_pd_usart.o(.data)
    array                                    0x20000274   Data         168  aos_pd_usart.o(.data)
    errFlag                                  0x2000031c   Data           1  aos_pd_usart.o(.data)
    .data                                    0x20000320   Section      216  aos_cli.o(.data)
    array                                    0x20000320   Data         168  aos_cli.o(.data)
    errFlag                                  0x200003c8   Data           1  aos_cli.o(.data)
    pcBootloaderUpdateMessage                0x200003cc   Data           4  aos_cli.o(.data)
    pcMessage                                0x200003d0   Data           4  aos_cli.o(.data)
    pcMessage                                0x200003d4   Data           4  aos_cli.o(.data)
    pcMessage                                0x200003d8   Data           4  aos_cli.o(.data)
    pcMessageMaxRate                         0x200003dc   Data           4  aos_cli.o(.data)
    pcMessage                                0x200003e0   Data           4  aos_cli.o(.data)
    pcMessageMaxRate                         0x200003e4   Data           4  aos_cli.o(.data)
    pcMode0                                  0x200003e8   Data           4  aos_cli.o(.data)
    pcMode1                                  0x200003ec   Data           4  aos_cli.o(.data)
    pcMode2                                  0x200003f0   Data           4  aos_cli.o(.data)
    pcMode3                                  0x200003f4   Data           4  aos_cli.o(.data)
    .data                                    0x200003f8   Section        4  port.o(.data)
    uxCriticalNesting                        0x200003f8   Data           4  port.o(.data)
    .data                                    0x200003fc   Section       24  heap_4.o(.data)
    xStart                                   0x200003fc   Data           8  heap_4.o(.data)
    pxEnd                                    0x20000404   Data           4  heap_4.o(.data)
    xFreeBytesRemaining                      0x20000408   Data           4  heap_4.o(.data)
    xMinimumEverFreeBytesRemaining           0x2000040c   Data           4  heap_4.o(.data)
    xBlockAllocatedBit                       0x20000410   Data           4  heap_4.o(.data)
    .data                                    0x20000414   Section       20  freertos_cli.o(.data)
    xRegisteredCommands                      0x20000414   Data           8  freertos_cli.o(.data)
    pxLastCommandInList                      0x2000041c   Data           4  freertos_cli.o(.data)
    pxCommand                                0x20000420   Data           4  freertos_cli.o(.data)
    pxCommand                                0x20000424   Data           4  freertos_cli.o(.data)
    .data                                    0x20000428   Section      188  uart-interrupt-driven-command-console.o(.data)
    array                                    0x20000428   Data         168  uart-interrupt-driven-command-console.o(.data)
    errFlag                                  0x200004d0   Data           1  uart-interrupt-driven-command-console.o(.data)
    pcWelcomeMessage                         0x200004d8   Data           4  uart-interrupt-driven-command-console.o(.data)
    pcNewLine                                0x200004dc   Data           4  uart-interrupt-driven-command-console.o(.data)
    pcEndOfCommandOutputString               0x200004e0   Data           4  uart-interrupt-driven-command-console.o(.data)
    .data                                    0x200004e4   Section        4  rand.o(.data)
    _rand_state                              0x200004e4   Data           4  rand.o(.data)
    .data                                    0x200004e8   Section        4  errno.o(.data)
    _errno                                   0x200004e8   Data           4  errno.o(.data)
    privileged_data                          0x200004ec   Section      304  tasks.o(privileged_data)
    pxReadyTasksLists                        0x200004f0   Data         140  tasks.o(privileged_data)
    xDelayedTaskList1                        0x2000057c   Data          20  tasks.o(privileged_data)
    xDelayedTaskList2                        0x20000590   Data          20  tasks.o(privileged_data)
    pxDelayedTaskList                        0x200005a4   Data           4  tasks.o(privileged_data)
    pxOverflowDelayedTaskList                0x200005a8   Data           4  tasks.o(privileged_data)
    xPendingReadyList                        0x200005ac   Data          20  tasks.o(privileged_data)
    xTasksWaitingTermination                 0x200005c0   Data          20  tasks.o(privileged_data)
    uxTasksDeleted                           0x200005d4   Data           4  tasks.o(privileged_data)
    xSuspendedTaskList                       0x200005d8   Data          20  tasks.o(privileged_data)
    uxCurrentNumberOfTasks                   0x200005ec   Data           4  tasks.o(privileged_data)
    xTickCount                               0x200005f0   Data           4  tasks.o(privileged_data)
    uxTopReadyPriority                       0x200005f4   Data           4  tasks.o(privileged_data)
    xSchedulerRunning                        0x200005f8   Data           4  tasks.o(privileged_data)
    uxPendedTicks                            0x200005fc   Data           4  tasks.o(privileged_data)
    xYieldPending                            0x20000600   Data           4  tasks.o(privileged_data)
    xNumOfOverflows                          0x20000604   Data           4  tasks.o(privileged_data)
    uxTaskNumber                             0x20000608   Data           4  tasks.o(privileged_data)
    xNextTaskUnblockTime                     0x2000060c   Data           4  tasks.o(privileged_data)
    uxSchedulerSuspended                     0x20000610   Data           4  tasks.o(privileged_data)
    ulTaskSwitchedInTime                     0x20000614   Data           4  tasks.o(privileged_data)
    ulTotalRunTime                           0x20000618   Data           4  tasks.o(privileged_data)
    .bss                                     0x2000061c   Section       28  freertos.o(.bss)
    .bss                                     0x20000638   Section      180  aos.o(.bss)
    .bss                                     0x200006ec   Section      672  aos_pd_usart.o(.bss)
    .bss                                     0x2000098c   Section       76  aos_pd_adc.o(.bss)
    .bss                                     0x200009d8   Section      280  aos_pd_dma.o(.bss)
    .bss                                     0x20000af0   Section       64  queue.o(.bss)
    .bss                                     0x20000b30   Section    12288  heap_4.o(.bss)
    ucHeap                                   0x20000b30   Data       12288  heap_4.o(.bss)
    .bss                                     0x20003b30   Section     1024  freertos_cli.o(.bss)
    cOutputBuffer                            0x20003b30   Data        1024  freertos_cli.o(.bss)
    .bss                                     0x20003f30   Section      100  uart-interrupt-driven-command-console.o(.bss)
    cInputString                             0x20003f30   Data          50  uart-interrupt-driven-command-console.o(.bss)
    cLastInputString                         0x20003f62   Data          50  uart-interrupt-driven-command-console.o(.bss)
    STACK                                    0x20003f98   Section    12288  startup_stm32f091xc.o(STACK)

    Global Symbols

    Symbol Name                              Value     Ov Type        Size  Object(Section)

    BuildAttributes$$THM_ISAv3M$S$PE$A:L22$X:L11$S22$IEEE1$IW$USESV6$~STKCKD$USESV7$~SHL$OTIME$ROPI$IEEEJ$EBA8$MICROLIB$REQ8$PRES8$EABIv2 0x00000000   Number         0  anon$$obj.o ABSOLUTE
    __ARM_use_no_argv                        0x00000000   Number         0  main.o ABSOLUTE
    _printf_a                                0x00000000   Number         0  stubs.o ABSOLUTE
    _printf_c                                0x00000000   Number         0  stubs.o ABSOLUTE
    _printf_charcount                        0x00000000   Number         0  stubs.o ABSOLUTE
    _printf_d                                0x00000000   Number         0  stubs.o ABSOLUTE
    _printf_e                                0x00000000   Number         0  stubs.o ABSOLUTE
    _printf_f                                0x00000000   Number         0  stubs.o ABSOLUTE
    _printf_flags                            0x00000000   Number         0  stubs.o ABSOLUTE
    _printf_fp_dec                           0x00000000   Number         0  stubs.o ABSOLUTE
    _printf_fp_hex                           0x00000000   Number         0  stubs.o ABSOLUTE
    _printf_g                                0x00000000   Number         0  stubs.o ABSOLUTE
    _printf_i                                0x00000000   Number         0  stubs.o ABSOLUTE
    _printf_int_dec                          0x00000000   Number         0  stubs.o ABSOLUTE
    _printf_l                                0x00000000   Number         0  stubs.o ABSOLUTE
    _printf_lc                               0x00000000   Number         0  stubs.o ABSOLUTE
    _printf_ll                               0x00000000   Number         0  stubs.o ABSOLUTE
    _printf_lld                              0x00000000   Number         0  stubs.o ABSOLUTE
    _printf_lli                              0x00000000   Number         0  stubs.o ABSOLUTE
    _printf_llo                              0x00000000   Number         0  stubs.o ABSOLUTE
    _printf_llu                              0x00000000   Number         0  stubs.o ABSOLUTE
    _printf_llx                              0x00000000   Number         0  stubs.o ABSOLUTE
    _printf_longlong_dec                     0x00000000   Number         0  stubs.o ABSOLUTE
    _printf_longlong_hex                     0x00000000   Number         0  stubs.o ABSOLUTE
    _printf_longlong_oct                     0x00000000   Number         0  stubs.o ABSOLUTE
    _printf_ls                               0x00000000   Number         0  stubs.o ABSOLUTE
    _printf_mbtowc                           0x00000000   Number         0  stubs.o ABSOLUTE
    _printf_n                                0x00000000   Number         0  stubs.o ABSOLUTE
    _printf_o                                0x00000000   Number         0  stubs.o ABSOLUTE
    _printf_p                                0x00000000   Number         0  stubs.o ABSOLUTE
    _printf_percent                          0x00000000   Number         0  stubs.o ABSOLUTE
    _printf_pre_padding                      0x00000000   Number         0  stubs.o ABSOLUTE
    _printf_return_value                     0x00000000   Number         0  stubs.o ABSOLUTE
    _printf_s                                0x00000000   Number         0  stubs.o ABSOLUTE
    _printf_sizespec                         0x00000000   Number         0  stubs.o ABSOLUTE
    _printf_str                              0x00000000   Number         0  stubs.o ABSOLUTE
    _printf_truncate_signed                  0x00000000   Number         0  stubs.o ABSOLUTE
    _printf_truncate_unsigned                0x00000000   Number         0  stubs.o ABSOLUTE
    _printf_u                                0x00000000   Number         0  stubs.o ABSOLUTE
    _printf_wc                               0x00000000   Number         0  stubs.o ABSOLUTE
    _printf_wctomb                           0x00000000   Number         0  stubs.o ABSOLUTE
    _printf_widthprec                        0x00000000   Number         0  stubs.o ABSOLUTE
    _printf_x                                0x00000000   Number         0  stubs.o ABSOLUTE
    __cpp_initialize__aeabi_                  - Undefined Weak Reference
    __cxa_finalize                            - Undefined Weak Reference
    _clock_init                               - Undefined Weak Reference
    _microlib_exit                            - Undefined Weak Reference
    __Vectors_Size                           0x000000bc   Number         0  startup_stm32f091xc.o ABSOLUTE
    __Vectors                                0x08000000   Data           4  startup_stm32f091xc.o(RESET)
    __Vectors_End                            0x080000bc   Data           0  startup_stm32f091xc.o(RESET)
    __main                                   0x080000bd   Thumb Code     0  entry.o(.ARM.Collect$$$$00000000)
    _main_stk                                0x080000bd   Thumb Code     0  entry2.o(.ARM.Collect$$$$00000001)
    _main_scatterload                        0x080000c1   Thumb Code     0  entry5.o(.ARM.Collect$$$$00000004)
    __main_after_scatterload                 0x080000c5   Thumb Code     0  entry5.o(.ARM.Collect$$$$00000004)
    _main_clock                              0x080000c5   Thumb Code     0  entry7b.o(.ARM.Collect$$$$00000008)
    _main_cpp_init                           0x080000c5   Thumb Code     0  entry8b.o(.ARM.Collect$$$$0000000A)
    _main_init                               0x080000c5   Thumb Code     0  entry9a.o(.ARM.Collect$$$$0000000B)
    __rt_final_cpp                           0x080000cd   Thumb Code     0  entry10a.o(.ARM.Collect$$$$0000000D)
    __rt_final_exit                          0x080000cd   Thumb Code     0  entry11a.o(.ARM.Collect$$$$0000000F)
    __asm___6_port_c_39a90d8d__prvPortStartFirstTask 0x080000d1   Thumb Code    28  port.o(.emb_text)
    ulSetInterruptMaskFromISR                0x080000f1   Thumb Code     8  port.o(.emb_text)
    vClearInterruptMaskFromISR               0x080000f9   Thumb Code     6  port.o(.emb_text)
    PendSV_Handler                           0x080000ff   Thumb Code    62  port.o(.emb_text)
    Reset_Handler                            0x08000141   Thumb Code    20  startup_stm32f091xc.o(.text)
    Reboot_Loader                            0x08000155   Thumb Code    22  startup_stm32f091xc.o(.text)
    NMI_Handler                              0x0800016b   Thumb Code     2  startup_stm32f091xc.o(.text)
    HardFault_Handler                        0x0800016d   Thumb Code     2  startup_stm32f091xc.o(.text)
    ADC1_COMP_IRQHandler                     0x08000175   Thumb Code     0  startup_stm32f091xc.o(.text)
    CEC_CAN_IRQHandler                       0x08000175   Thumb Code     0  startup_stm32f091xc.o(.text)
    EXTI0_1_IRQHandler                       0x08000175   Thumb Code     0  startup_stm32f091xc.o(.text)
    EXTI2_3_IRQHandler                       0x08000175   Thumb Code     0  startup_stm32f091xc.o(.text)
    EXTI4_15_IRQHandler                      0x08000175   Thumb Code     0  startup_stm32f091xc.o(.text)
    FLASH_IRQHandler                         0x08000175   Thumb Code     0  startup_stm32f091xc.o(.text)
    I2C1_IRQHandler                          0x08000175   Thumb Code     0  startup_stm32f091xc.o(.text)
    I2C2_IRQHandler                          0x08000175   Thumb Code     0  startup_stm32f091xc.o(.text)
    PVD_VDDIO2_IRQHandler                    0x08000175   Thumb Code     0  startup_stm32f091xc.o(.text)
    RCC_CRS_IRQHandler                       0x08000175   Thumb Code     0  startup_stm32f091xc.o(.text)
    RTC_IRQHandler                           0x08000175   Thumb Code     0  startup_stm32f091xc.o(.text)
    SPI1_IRQHandler                          0x08000175   Thumb Code     0  startup_stm32f091xc.o(.text)
    SPI2_IRQHandler                          0x08000175   Thumb Code     0  startup_stm32f091xc.o(.text)
    TIM14_IRQHandler                         0x08000175   Thumb Code     0  startup_stm32f091xc.o(.text)
    TIM15_IRQHandler                         0x08000175   Thumb Code     0  startup_stm32f091xc.o(.text)
    TIM16_IRQHandler                         0x08000175   Thumb Code     0  startup_stm32f091xc.o(.text)
    TIM17_IRQHandler                         0x08000175   Thumb Code     0  startup_stm32f091xc.o(.text)
    TIM1_BRK_UP_TRG_COM_IRQHandler           0x08000175   Thumb Code     0  startup_stm32f091xc.o(.text)
    TIM1_CC_IRQHandler                       0x08000175   Thumb Code     0  startup_stm32f091xc.o(.text)
    TIM3_IRQHandler                          0x08000175   Thumb Code     0  startup_stm32f091xc.o(.text)
    TIM6_DAC_IRQHandler                      0x08000175   Thumb Code     0  startup_stm32f091xc.o(.text)
    TIM7_IRQHandler                          0x08000175   Thumb Code     0  startup_stm32f091xc.o(.text)
    TSC_IRQHandler                           0x08000175   Thumb Code     0  startup_stm32f091xc.o(.text)
    WWDG_IRQHandler                          0x08000175   Thumb Code     0  startup_stm32f091xc.o(.text)
    __aeabi_uidiv                            0x08000199   Thumb Code     0  uidiv.o(.text)
    __aeabi_uidivmod                         0x08000199   Thumb Code    44  uidiv.o(.text)
    __aeabi_llsr                             0x080001c5   Thumb Code    34  llushr.o(.text)
    _ll_ushift_r                             0x080001c5   Thumb Code     0  llushr.o(.text)
    rand                                     0x080001e9   Thumb Code    18  rand.o(.text)
    srand                                    0x080001fb   Thumb Code     6  rand.o(.text)
    __aeabi_memcpy                           0x0800020d   Thumb Code    36  memcpya.o(.text)
    __aeabi_memcpy4                          0x0800020d   Thumb Code     0  memcpya.o(.text)
    __aeabi_memcpy8                          0x0800020d   Thumb Code     0  memcpya.o(.text)
    __aeabi_memset                           0x08000231   Thumb Code    14  memseta.o(.text)
    __aeabi_memset4                          0x08000231   Thumb Code     0  memseta.o(.text)
    __aeabi_memset8                          0x08000231   Thumb Code     0  memseta.o(.text)
    __aeabi_memclr                           0x0800023f   Thumb Code     4  memseta.o(.text)
    __aeabi_memclr4                          0x0800023f   Thumb Code     0  memseta.o(.text)
    __aeabi_memclr8                          0x0800023f   Thumb Code     0  memseta.o(.text)
    _memset$wrapper                          0x08000243   Thumb Code    18  memseta.o(.text)
    strcat                                   0x08000255   Thumb Code    24  strcat.o(.text)
    strncpy                                  0x0800026d   Thumb Code    26  strncpy.o(.text)
    strlen                                   0x08000287   Thumb Code    14  strlen.o(.text)
    strcmp                                   0x08000295   Thumb Code    28  strcmp.o(.text)
    memcmp                                   0x080002b1   Thumb Code    26  memcmp.o(.text)
    strcpy                                   0x080002cb   Thumb Code    18  strcpy.o(.text)
    strncmp                                  0x080002dd   Thumb Code    30  strncmp.o(.text)
    atoi                                     0x080002fb   Thumb Code    26  atoi.o(.text)
    atol                                     0x08000315   Thumb Code    26  atol.o(.text)
    __aeabi_f2d                              0x0800032f   Thumb Code    40  f2d.o(.text)
    __aeabi_d2f                              0x08000357   Thumb Code    56  d2f.o(.text)
    __aeabi_cfcmpeq                          0x08000391   Thumb Code     0  cfcmple.o(.text)
    __aeabi_cfcmple                          0x08000391   Thumb Code    20  cfcmple.o(.text)
    __aeabi_uldivmod                         0x080003a5   Thumb Code    96  uldiv.o(.text)
    __strtod_int                             0x0800043b   Thumb Code    92  strtod.o(.text)
    strtol                                   0x080004a9   Thumb Code   108  strtol.o(.text)
    __I$use$fp                               0x08000519   Thumb Code     0  iusefp.o(.text)
    _float_round                             0x08000519   Thumb Code    16  fepilogue.o(.text)
    _float_epilogue                          0x08000529   Thumb Code   114  fepilogue.o(.text)
    __aeabi_dadd                             0x0800059d   Thumb Code   328  dadd.o(.text)
    __aeabi_dsub                             0x080006e5   Thumb Code    12  dadd.o(.text)
    __aeabi_drsub                            0x080006f1   Thumb Code    12  dadd.o(.text)
    __aeabi_dmul                             0x08000701   Thumb Code   202  dmul.o(.text)
    __aeabi_ddiv                             0x080007d1   Thumb Code   234  ddiv.o(.text)
    __aeabi_d2ulz                            0x080008c1   Thumb Code    54  dfixul.o(.text)
    __aeabi_cdrcmple                         0x08000901   Thumb Code    38  cdrcmple.o(.text)
    __scatterload                            0x08000929   Thumb Code    28  init.o(.text)
    __scatterload_rt2                        0x08000929   Thumb Code     0  init.o(.text)
    __aeabi_llsl                             0x0800094d   Thumb Code    32  llshl.o(.text)
    _ll_shift_l                              0x0800094d   Thumb Code     0  llshl.o(.text)
    __aeabi_lasr                             0x0800096d   Thumb Code    38  llsshr.o(.text)
    _ll_sshift_r                             0x0800096d   Thumb Code     0  llsshr.o(.text)
    __rt_ctype_table                         0x08000995   Thumb Code     4  ctype_o.o(.text)
    isspace                                  0x0800099d   Thumb Code    18  isspace_o.o(.text)
    _scanf_real                              0x08000aa7   Thumb Code     0  scanf_fp.o(.text)
    _scanf_really_real                       0x08000aa7   Thumb Code   586  scanf_fp.o(.text)
    _sgetc                                   0x08000cfd   Thumb Code    32  _sgetc.o(.text)
    _sbackspace                              0x08000d1d   Thumb Code    36  _sgetc.o(.text)
    _strtoul                                 0x08000d41   Thumb Code   166  _strtoul.o(.text)
    _double_round                            0x08000de7   Thumb Code    26  depilogue.o(.text)
    _double_epilogue                         0x08000e01   Thumb Code   164  depilogue.o(.text)
    __aeabi_lmul                             0x08000ea5   Thumb Code   122  llmul.o(.text)
    _ll_mul                                  0x08000ea5   Thumb Code     0  llmul.o(.text)
    _chval                                   0x08000f1f   Thumb Code    30  _chval.o(.text)
    __aeabi_ul2d                             0x08000f3d   Thumb Code    22  dfltul.o(.text)
    __decompress                             0x08000f59   Thumb Code     0  __dclz77c.o(.text)
    __decompress2                            0x08000f59   Thumb Code    96  __dclz77c.o(.text)
    AOS_init                                 0x080011a5   Thumb Code   152  aos.o(i.AOS_init)
    DMA1_Ch1_IRQHandler                      0x08001249   Thumb Code   308  stm32f0xx_it.o(i.DMA1_Ch1_IRQHandler)
    DMA1_Ch2_3_DMA2_Ch1_2_IRQHandler         0x080013a9   Thumb Code    48  stm32f0xx_it.o(i.DMA1_Ch2_3_DMA2_Ch1_2_IRQHandler)
    DMA1_Ch4_7_DMA2_Ch3_5_IRQHandler         0x080013e9   Thumb Code    50  stm32f0xx_it.o(i.DMA1_Ch4_7_DMA2_Ch3_5_IRQHandler)
    DownlinkDMA1_Init                        0x08001449   Thumb Code    42  aos_pd_dma.o(i.DownlinkDMA1_Init)
    DownlinkDMA1_Setup                       0x0800147d   Thumb Code   378  aos_pd_dma.o(i.DownlinkDMA1_Setup)
    DownlinkDMA2_Init                        0x08001629   Thumb Code    42  aos_pd_dma.o(i.DownlinkDMA2_Init)
    DownlinkDMA3_Init                        0x0800165d   Thumb Code    42  aos_pd_dma.o(i.DownlinkDMA3_Init)
    FreeRTOS_CLIGetOutputBuffer              0x08001691   Thumb Code     4  freertos_cli.o(i.FreeRTOS_CLIGetOutputBuffer)
    FreeRTOS_CLIGetParameter                 0x08001699   Thumb Code   102  freertos_cli.o(i.FreeRTOS_CLIGetParameter)
    FreeRTOS_CLIProcessCommand               0x08001701   Thumb Code   204  freertos_cli.o(i.FreeRTOS_CLIProcessCommand)
    FreeRTOS_CLIRegisterCommand              0x080017dd   Thumb Code    68  freertos_cli.o(i.FreeRTOS_CLIRegisterCommand)
    FrontEndTask                             0x08001825   Thumb Code    18  main.o(i.FrontEndTask)
    GetPort                                  0x08001839   Thumb Code    78  aos.o(i.GetPort)
    GetUart                                  0x080018a1   Thumb Code    48  aos.o(i.GetUart)
    HAL_ADC_ConfigChannel                    0x080018e9   Thumb Code   412  stm32f0xx_hal_adc.o(i.HAL_ADC_ConfigChannel)
    HAL_ADC_GetValue                         0x08001a95   Thumb Code    14  stm32f0xx_hal_adc.o(i.HAL_ADC_GetValue)
    HAL_ADC_Init                             0x08001aa5   Thumb Code   422  stm32f0xx_hal_adc.o(i.HAL_ADC_Init)
    HAL_ADC_MspInit                          0x08001c55   Thumb Code    66  aos_pd_adc.o(i.HAL_ADC_MspInit)
    HAL_ADC_PollForConversion                0x08001ca5   Thumb Code   228  stm32f0xx_hal_adc.o(i.HAL_ADC_PollForConversion)
    HAL_ADC_Start                            0x08001d89   Thumb Code   114  stm32f0xx_hal_adc.o(i.HAL_ADC_Start)
    HAL_ADC_Stop                             0x08001e01   Thumb Code    80  stm32f0xx_hal_adc.o(i.HAL_ADC_Stop)
    HAL_DMA_IRQHandler                       0x08001e51   Thumb Code  2324  stm32f0xx_hal_dma.o(i.HAL_DMA_IRQHandler)
    HAL_DMA_Init                             0x0800276d   Thumb Code    86  stm32f0xx_hal_dma.o(i.HAL_DMA_Init)
    HAL_DMA_Start_IT                         0x080027c9   Thumb Code   114  stm32f0xx_hal_dma.o(i.HAL_DMA_Start_IT)
    HAL_Delay                                0x0800283b   Thumb Code    26  stm32f0xx_hal.o(i.HAL_Delay)
    HAL_GPIO_Init                            0x08002855   Thumb Code   480  stm32f0xx_hal_gpio.o(i.HAL_GPIO_Init)
    HAL_GPIO_TogglePin                       0x08002a51   Thumb Code     8  stm32f0xx_hal_gpio.o(i.HAL_GPIO_TogglePin)
    HAL_GPIO_WritePin                        0x08002a59   Thumb Code    12  stm32f0xx_hal_gpio.o(i.HAL_GPIO_WritePin)
    HAL_GetTick                              0x08002a65   Thumb Code     6  stm32f0xx_hal.o(i.HAL_GetTick)
    HAL_IncTick                              0x08002a71   Thumb Code    12  stm32f0xx_hal.o(i.HAL_IncTick)
    HAL_Init                                 0x08002a81   Thumb Code    28  stm32f0xx_hal.o(i.HAL_Init)
    HAL_InitTick                             0x08002aa1   Thumb Code    38  stm32f0xx_hal.o(i.HAL_InitTick)
    HAL_MspInit                              0x08002ac7   Thumb Code     2  stm32f0xx_hal.o(i.HAL_MspInit)
    HAL_NVIC_EnableIRQ                       0x08002ac9   Thumb Code    18  stm32f0xx_hal_cortex.o(i.HAL_NVIC_EnableIRQ)
    HAL_NVIC_SetPriority                     0x08002ae1   Thumb Code    18  stm32f0xx_hal_cortex.o(i.HAL_NVIC_SetPriority)
    HAL_RCCEx_PeriphCLKConfig                0x08002af5   Thumb Code   368  stm32f0xx_hal_rcc_ex.o(i.HAL_RCCEx_PeriphCLKConfig)
    HAL_RCC_ClockConfig                      0x08002c71   Thumb Code   702  stm32f0xx_hal_rcc.o(i.HAL_RCC_ClockConfig)
    HAL_RCC_GetHCLKFreq                      0x08002f3d   Thumb Code    32  stm32f0xx_hal_rcc.o(i.HAL_RCC_GetHCLKFreq)
    HAL_RCC_GetPCLK1Freq                     0x08002f69   Thumb Code    26  stm32f0xx_hal_rcc.o(i.HAL_RCC_GetPCLK1Freq)
    HAL_RCC_GetSysClockFreq                  0x08002f8d   Thumb Code   194  stm32f0xx_hal_rcc.o(i.HAL_RCC_GetSysClockFreq)
    HAL_RCC_OscConfig                        0x0800307d   Thumb Code  1622  stm32f0xx_hal_rcc.o(i.HAL_RCC_OscConfig)
    HAL_SYSTICK_Config                       0x080036d9   Thumb Code    46  stm32f0xx_hal_cortex.o(i.HAL_SYSTICK_Config)
    HAL_TIMEx_BreakCallback                  0x08003711   Thumb Code     2  stm32f0xx_hal_tim_ex.o(i.HAL_TIMEx_BreakCallback)
    HAL_TIMEx_CommutationCallback            0x08003713   Thumb Code     2  stm32f0xx_hal_tim_ex.o(i.HAL_TIMEx_CommutationCallback)
    HAL_TIMEx_MasterConfigSynchronization    0x08003715   Thumb Code    98  stm32f0xx_hal_tim_ex.o(i.HAL_TIMEx_MasterConfigSynchronization)
    HAL_TIM_Base_Init                        0x08003777   Thumb Code    56  stm32f0xx_hal_tim.o(i.HAL_TIM_Base_Init)
    HAL_TIM_Base_MspInit                     0x080037af   Thumb Code     2  stm32f0xx_hal_tim.o(i.HAL_TIM_Base_MspInit)
    HAL_TIM_Base_Start                       0x080037b1   Thumb Code    30  stm32f0xx_hal_tim.o(i.HAL_TIM_Base_Start)
    HAL_TIM_Base_Stop                        0x080037d1   Thumb Code    58  stm32f0xx_hal_tim.o(i.HAL_TIM_Base_Stop)
    HAL_TIM_IC_CaptureCallback               0x08003811   Thumb Code     2  stm32f0xx_hal_tim.o(i.HAL_TIM_IC_CaptureCallback)
    HAL_TIM_IRQHandler                       0x08003813   Thumb Code   456  stm32f0xx_hal_tim.o(i.HAL_TIM_IRQHandler)
    HAL_TIM_OC_DelayElapsedCallback          0x080039db   Thumb Code     2  stm32f0xx_hal_tim.o(i.HAL_TIM_OC_DelayElapsedCallback)
    HAL_TIM_PWM_PulseFinishedCallback        0x080039dd   Thumb Code     2  stm32f0xx_hal_tim.o(i.HAL_TIM_PWM_PulseFinishedCallback)
    HAL_TIM_PeriodElapsedCallback            0x080039df   Thumb Code     2  stm32f0xx_hal_tim.o(i.HAL_TIM_PeriodElapsedCallback)
    HAL_TIM_TriggerCallback                  0x080039e1   Thumb Code     2  stm32f0xx_hal_tim.o(i.HAL_TIM_TriggerCallback)
    HAL_UARTEx_WakeupCallback                0x080039e3   Thumb Code     2  stm32f0xx_hal_uart_ex.o(i.HAL_UARTEx_WakeupCallback)
    HAL_UART_ErrorCallback                   0x080039e5   Thumb Code     2  stm32f0xx_hal_uart.o(i.HAL_UART_ErrorCallback)
    HAL_UART_IRQHandler                      0x080039e7   Thumb Code   334  stm32f0xx_hal_uart_ex.o(i.HAL_UART_IRQHandler)
    HAL_UART_Init                            0x08003b35   Thumb Code   130  stm32f0xx_hal_uart.o(i.HAL_UART_Init)
    HAL_UART_MspInit                         0x08003bb9   Thumb Code   674  aos_pd_usart.o(i.HAL_UART_MspInit)
    HAL_UART_Receive                         0x08003e89   Thumb Code   326  stm32f0xx_hal_uart.o(i.HAL_UART_Receive)
    HAL_UART_Receive_DMA                     0x08003fd5   Thumb Code   158  stm32f0xx_hal_uart.o(i.HAL_UART_Receive_DMA)
    HAL_UART_RxCpltCallback                  0x08004081   Thumb Code    36  stm32f0xx_it.o(i.HAL_UART_RxCpltCallback)
    HAL_UART_RxHalfCpltCallback              0x080040ad   Thumb Code     2  stm32f0xx_hal_uart.o(i.HAL_UART_RxHalfCpltCallback)
    HAL_UART_Transmit                        0x080040af   Thumb Code   238  stm32f0xx_hal_uart.o(i.HAL_UART_Transmit)
    HAL_UART_Transmit_IT                     0x0800419d   Thumb Code   132  stm32f0xx_hal_uart.o(i.HAL_UART_Transmit_IT)
    HAL_UART_TxCpltCallback                  0x08004221   Thumb Code    36  stm32f0xx_it.o(i.HAL_UART_TxCpltCallback)
    IND_LED_Init                             0x0800424d   Thumb Code    34  aos_pd_gpio.o(i.IND_LED_Init)
    MX_ADC_Init                              0x08004271   Thumb Code    72  aos_pd_adc.o(i.MX_ADC_Init)
    MX_DMA_Init                              0x080042c1   Thumb Code    80  aos_pd_dma.o(i.MX_DMA_Init)
    MX_FREERTOS_Init                         0x08004315   Thumb Code   308  freertos.o(i.MX_FREERTOS_Init)
    MX_GPIO_Init                             0x080044c5   Thumb Code   130  aos_pd_gpio.o(i.MX_GPIO_Init)
    MX_TIM2_Init                             0x0800454d   Thumb Code    86  aos.o(i.MX_TIM2_Init)
    MX_TIM7_Init                             0x080045ad   Thumb Code    70  aos.o(i.MX_TIM7_Init)
    MX_UART_Init                             0x08004601   Thumb Code    28  aos_pd_usart.o(i.MX_UART_Init)
    MX_USART1_UART_Init                      0x0800461d   Thumb Code    48  aos_pd_usart.o(i.MX_USART1_UART_Init)
    MX_USART2_UART_Init                      0x08004659   Thumb Code    56  aos_pd_usart.o(i.MX_USART2_UART_Init)
    MX_USART3_UART_Init                      0x0800469d   Thumb Code    48  aos_pd_usart.o(i.MX_USART3_UART_Init)
    MX_USART4_UART_Init                      0x080046d9   Thumb Code    48  aos_pd_usart.o(i.MX_USART4_UART_Init)
    MX_USART7_UART_Init                      0x08004715   Thumb Code    56  aos_pd_usart.o(i.MX_USART7_UART_Init)
    MX_USART8_UART_Init                      0x08004759   Thumb Code    48  aos_pd_usart.o(i.MX_USART8_UART_Init)
    PxTask                                   0x0800480d   Thumb Code    78  freertos.o(i.PxTask)
    SVC_Handler                              0x08004869   Thumb Code     2  port.o(i.SVC_Handler)
    SampleAndForward                         0x0800486d   Thumb Code   168  main.o(i.SampleAndForward)
    SamplePD                                 0x08004925   Thumb Code    44  aos_pd_adc.o(i.SamplePD)
    StartDefaultTask                         0x08004955   Thumb Code    12  freertos.o(i.StartDefaultTask)
    StreamSetup                              0x08004961   Thumb Code    54  main.o(i.StreamSetup)
    SysTick_Handler                          0x0800499d   Thumb Code    12  stm32f0xx_it.o(i.SysTick_Handler)
    SystemClock_Config                       0x080049a9   Thumb Code   124  aos.o(i.SystemClock_Config)
    SystemInit                               0x08004a2d   Thumb Code   102  system_stm32f0xx.o(i.SystemInit)
    TIM2_IRQHandler                          0x08004aa5   Thumb Code    16  stm32f0xx_it.o(i.TIM2_IRQHandler)
    TIM_Base_SetConfig                       0x08004abd   Thumb Code   140  stm32f0xx_hal_tim.o(i.TIM_Base_SetConfig)
    UART_AdvFeatureConfig                    0x08004b61   Thumb Code   240  stm32f0xx_hal_uart.o(i.UART_AdvFeatureConfig)
    UART_CheckIdleState                      0x08004c51   Thumb Code   120  stm32f0xx_hal_uart.o(i.UART_CheckIdleState)
    UART_EndTransmit_IT                      0x08004d4b   Thumb Code    60  stm32f0xx_hal_uart.o(i.UART_EndTransmit_IT)
    UART_Receive_IT                          0x08004d87   Thumb Code   168  stm32f0xx_hal_uart.o(i.UART_Receive_IT)
    UART_SetConfig                           0x08004e31   Thumb Code   584  stm32f0xx_hal_uart.o(i.UART_SetConfig)
    UART_Transmit_IT                         0x080050ad   Thumb Code   122  stm32f0xx_hal_uart.o(i.UART_Transmit_IT)
    UART_WaitOnFlagUntilTimeout              0x08005127   Thumb Code   254  stm32f0xx_hal_uart.o(i.UART_WaitOnFlagUntilTimeout)
    USART1_IRQHandler                        0x08005225   Thumb Code    24  stm32f0xx_it.o(i.USART1_IRQHandler)
    USART2_IRQHandler                        0x08005245   Thumb Code    24  stm32f0xx_it.o(i.USART2_IRQHandler)
    USART3_8_IRQHandler                      0x08005265   Thumb Code    42  stm32f0xx_it.o(i.USART3_8_IRQHandler)
    UplinkDMA1_Init                          0x080052a5   Thumb Code    38  aos_pd_dma.o(i.UplinkDMA1_Init)
    UplinkDMA1_Setup                         0x080052d5   Thumb Code   362  aos_pd_dma.o(i.UplinkDMA1_Setup)
    UplinkDMA2_Init                          0x0800546d   Thumb Code    38  aos_pd_dma.o(i.UplinkDMA2_Init)
    __0sprintf                               0x0800549d   Thumb Code    36  printfa.o(i.__0sprintf)
    __1sprintf                               0x0800549d   Thumb Code     0  printfa.o(i.__0sprintf)
    __2sprintf                               0x0800549d   Thumb Code     0  printfa.o(i.__0sprintf)
    __c89sprintf                             0x0800549d   Thumb Code     0  printfa.o(i.__0sprintf)
    sprintf                                  0x0800549d   Thumb Code     0  printfa.o(i.__0sprintf)
    __ARM_clz                                0x080054c5   Thumb Code    46  depilogue.o(i.__ARM_clz)
    __ARM_common_switch8                     0x080054f3   Thumb Code    28  stm32f0xx_hal_tim.o(i.__ARM_common_switch8)
    __aeabi_errno_addr                       0x08005511   Thumb Code     4  errno.o(i.__aeabi_errno_addr)
    __rt_errno_addr                          0x08005511   Thumb Code     0  errno.o(i.__aeabi_errno_addr)
    __read_errno                             0x08005519   Thumb Code     6  errno.o(i.__read_errno)
    __scatterload_copy                       0x08005525   Thumb Code    14  handlers.o(i.__scatterload_copy)
    __scatterload_null                       0x08005533   Thumb Code     2  handlers.o(i.__scatterload_null)
    __scatterload_zeroinit                   0x08005535   Thumb Code    14  handlers.o(i.__scatterload_zeroinit)
    __set_errno                              0x08005545   Thumb Code     6  errno.o(i.__set_errno)
    _is_digit                                0x080056a9   Thumb Code    14  scanf_fp.o(i._is_digit)
    atof                                     0x08005dfb   Thumb Code    42  atof.o(i.atof)
    main                                     0x08005ecf   Thumb Code    16  main.o(i.main)
    osDelay                                  0x08005edf   Thumb Code    26  cmsis_os.o(i.osDelay)
    osKernelStart                            0x08005ef9   Thumb Code    10  cmsis_os.o(i.osKernelStart)
    osSemaphoreCreate                        0x08005f03   Thumb Code    52  cmsis_os.o(i.osSemaphoreCreate)
    osSemaphoreRelease                       0x08005f39   Thumb Code    72  cmsis_os.o(i.osSemaphoreRelease)
    osSemaphoreWait                          0x08005f85   Thumb Code   108  cmsis_os.o(i.osSemaphoreWait)
    osSystickHandler                         0x08005ff5   Thumb Code    16  cmsis_os.o(i.osSystickHandler)
    pvTaskIncrementMutexHeldCount            0x08006419   Thumb Code    28  tasks.o(i.pvTaskIncrementMutexHeldCount)
    readPxMutex                              0x08006439   Thumb Code    74  aos_pd_usart.o(i.readPxMutex)
    startMicroDelay                          0x080065b9   Thumb Code    48  aos.o(i.startMicroDelay)
    ulMainGetRunTimeCounterValue             0x080068cd   Thumb Code    78  freertos.o(i.ulMainGetRunTimeCounterValue)
    ulTaskNotifyTake                         0x0800692d   Thumb Code   144  tasks.o(i.ulTaskNotifyTake)
    uxListRemove                             0x080069c9   Thumb Code    40  list.o(i.uxListRemove)
    uxTaskGetSystemState                     0x080069f1   Thumb Code   130  tasks.o(i.uxTaskGetSystemState)
    vApplicationMallocFailedHook             0x08006a8d   Thumb Code     6  stm32f0xx_it.o(i.vApplicationMallocFailedHook)
    vApplicationStackOverflowHook            0x08006a93   Thumb Code     6  stm32f0xx_it.o(i.vApplicationStackOverflowHook)
    vListInitialise                          0x08006a99   Thumb Code    26  list.o(i.vListInitialise)
    vListInitialiseItem                      0x08006ab3   Thumb Code     6  list.o(i.vListInitialiseItem)
    vListInsert                              0x08006ab9   Thumb Code    54  list.o(i.vListInsert)
    vListInsertEnd                           0x08006aef   Thumb Code    24  list.o(i.vListInsertEnd)
    vMainConfigureTimerForRunTimeStats       0x08006b09   Thumb Code    18  freertos.o(i.vMainConfigureTimerForRunTimeStats)
    vPortEnterCritical                       0x08006b29   Thumb Code    22  port.o(i.vPortEnterCritical)
    vPortExitCritical                        0x08006b45   Thumb Code    36  port.o(i.vPortExitCritical)
    vPortYield                               0x08006b6d   Thumb Code    18  port.o(i.vPortYield)
    vRegisterCLICommands                     0x08006b85   Thumb Code    52  aos_cli.o(i.vRegisterCLICommands)
    vUARTCommandConsoleStart                 0x08006bd9   Thumb Code    30  uart-interrupt-driven-command-console.o(i.vUARTCommandConsoleStart)
    writePxITMutex                           0x08006c09   Thumb Code    52  aos_pd_usart.o(i.writePxITMutex)
    writePxMutex                             0x08006c41   Thumb Code    74  aos_pd_usart.o(i.writePxMutex)
    xPortSysTickHandler                      0x08006c91   Thumb Code    32  port.o(i.xPortSysTickHandler)
    xTaskGenericNotify                       0x08006cb5   Thumb Code   200  tasks.o(i.xTaskGenericNotify)
    xQueueGenericReset                       0x08006d89   Thumb Code   126  queue.o(privileged_functions)
    xQueueGenericCreate                      0x08006e07   Thumb Code   120  queue.o(privileged_functions)
    xQueueGenericSend                        0x08006fab   Thumb Code   334  queue.o(privileged_functions)
    xQueueCreateMutex                        0x080070f9   Thumb Code    88  queue.o(privileged_functions)
    xQueueGiveMutexRecursive                 0x08007151   Thumb Code    60  queue.o(privileged_functions)
    xQueueGenericReceive                     0x080071d5   Thumb Code   368  queue.o(privileged_functions)
    xQueueTakeMutexRecursive                 0x08007345   Thumb Code    66  queue.o(privileged_functions)
    xQueueCreateCountingSemaphore            0x08007387   Thumb Code    78  queue.o(privileged_functions)
    xQueueGenericSendFromISR                 0x080073d5   Thumb Code   178  queue.o(privileged_functions)
    xQueueGiveFromISR                        0x08007487   Thumb Code   156  queue.o(privileged_functions)
    xQueueReceiveFromISR                     0x08007523   Thumb Code   144  queue.o(privileged_functions)
    xQueuePeekFromISR                        0x080075b3   Thumb Code   108  queue.o(privileged_functions)
    uxQueueMessagesWaiting                   0x0800761f   Thumb Code    28  queue.o(privileged_functions)
    uxQueueSpacesAvailable                   0x0800763b   Thumb Code    34  queue.o(privileged_functions)
    uxQueueMessagesWaitingFromISR            0x0800765d   Thumb Code    16  queue.o(privileged_functions)
    vQueueUnregisterQueue                    0x0800766d   Thumb Code    40  queue.o(privileged_functions)
    vQueueDelete                             0x08007695   Thumb Code    30  queue.o(privileged_functions)
    uxQueueGetQueueNumber                    0x080076b3   Thumb Code     6  queue.o(privileged_functions)
    vQueueSetQueueNumber                     0x080076b9   Thumb Code     4  queue.o(privileged_functions)
    ucQueueGetQueueType                      0x080076bd   Thumb Code     8  queue.o(privileged_functions)
    xQueueIsQueueEmptyFromISR                0x080076c5   Thumb Code    26  queue.o(privileged_functions)
    xQueueIsQueueFullFromISR                 0x080076df   Thumb Code    28  queue.o(privileged_functions)
    vQueueAddToRegistry                      0x080076fb   Thumb Code    40  queue.o(privileged_functions)
    pxPortInitialiseStack                    0x08007729   Thumb Code    26  port.o(privileged_functions)
    xPortStartScheduler                      0x08007743   Thumb Code    48  port.o(privileged_functions)
    vPortEndScheduler                        0x08007773   Thumb Code    30  port.o(privileged_functions)
    xTaskGenericCreate                       0x08007885   Thumb Code   288  tasks.o(privileged_functions)
    vTaskDelete                              0x080079a5   Thumb Code   134  tasks.o(privileged_functions)
    xTaskIncrementTick                       0x08007a2b   Thumb Code   274  tasks.o(privileged_functions)
    xTaskResumeAll                           0x08007b3d   Thumb Code   284  tasks.o(privileged_functions)
    vTaskSuspendAll                          0x08007c97   Thumb Code    12  tasks.o(privileged_functions)
    vTaskDelay                               0x08007ca3   Thumb Code    76  tasks.o(privileged_functions)
    uxTaskPriorityGet                        0x08007cef   Thumb Code    32  tasks.o(privileged_functions)
    uxTaskPriorityGetFromISR                 0x08007d0f   Thumb Code    36  tasks.o(privileged_functions)
    vTaskPrioritySet                         0x08007d33   Thumb Code   214  tasks.o(privileged_functions)
    vTaskSwitchContext                       0x08007e09   Thumb Code   232  tasks.o(privileged_functions)
    vTaskSuspend                             0x08007ef1   Thumb Code   148  tasks.o(privileged_functions)
    vTaskResume                              0x08007fcf   Thumb Code   172  tasks.o(privileged_functions)
    xTaskResumeFromISR                       0x0800807b   Thumb Code   116  tasks.o(privileged_functions)
    vTaskStartScheduler                      0x0800815b   Thumb Code    66  tasks.o(privileged_functions)
    vTaskEndScheduler                        0x0800819d   Thumb Code    16  tasks.o(privileged_functions)
    xTaskGetTickCount                        0x080081ad   Thumb Code     6  tasks.o(privileged_functions)
    xTaskGetTickCountFromISR                 0x080081b3   Thumb Code     8  tasks.o(privileged_functions)
    uxTaskGetNumberOfTasks                   0x080081bb   Thumb Code     6  tasks.o(privileged_functions)
    vTaskPlaceOnEventList                    0x08008287   Thumb Code    72  tasks.o(privileged_functions)
    vTaskPlaceOnUnorderedEventList           0x080082cf   Thumb Code   110  tasks.o(privileged_functions)
    xTaskRemoveFromEventList                 0x0800833d   Thumb Code   112  tasks.o(privileged_functions)
    xTaskRemoveFromUnorderedEventList        0x080083ad   Thumb Code   182  tasks.o(privileged_functions)
    vTaskSetTimeOutState                     0x08008463   Thumb Code    24  tasks.o(privileged_functions)
    xTaskCheckForTimeOut                     0x0800847b   Thumb Code   106  tasks.o(privileged_functions)
    vTaskMissedYield                         0x080084e5   Thumb Code     8  tasks.o(privileged_functions)
    uxTaskGetTaskNumber                      0x080084ed   Thumb Code    16  tasks.o(privileged_functions)
    vTaskSetTaskNumber                       0x080084fd   Thumb Code    10  tasks.o(privileged_functions)
    xTaskGetCurrentTaskHandle                0x08008507   Thumb Code     6  tasks.o(privileged_functions)
    xTaskGetSchedulerState                   0x0800850d   Thumb Code    28  tasks.o(privileged_functions)
    vTaskPriorityInherit                     0x08008529   Thumb Code   128  tasks.o(privileged_functions)
    xTaskPriorityDisinherit                  0x080085a9   Thumb Code   124  tasks.o(privileged_functions)
    vTaskList                                0x08008625   Thumb Code   180  tasks.o(privileged_functions)
    vTaskGetRunTimeStats                     0x080086d9   Thumb Code   166  tasks.o(privileged_functions)
    uxTaskResetEventItemValue                0x0800877f   Thumb Code    24  tasks.o(privileged_functions)
    pvPortMalloc                             0x080087e5   Thumb Code   274  heap_4.o(privileged_functions)
    vPortFree                                0x080088f7   Thumb Code   120  heap_4.o(privileged_functions)
    xPortGetFreeHeapSize                     0x0800896f   Thumb Code     6  heap_4.o(privileged_functions)
    xPortGetMinimumEverFreeHeapSize          0x08008975   Thumb Code     6  heap_4.o(privileged_functions)
    vPortInitialiseBlocks                    0x0800897b   Thumb Code     2  heap_4.o(privileged_functions)
    aAPBAHBPrescTable                        0x08008990   Data          16  stm32f0xx_hal_rcc.o(.constdata)
    __ctype_table                            0x08008a44   Data         129  ctype_o.o(.constdata)
    Region$$Table$$Base                      0x08009524   Number         0  anon$$obj.o(Region$$Table)
    Region$$Table$$Limit                     0x08009544   Number         0  anon$$obj.o(Region$$Table)
    defaultTaskHandle                        0x200000b0   Data           4  freertos.o(.data)
    FrontEndTaskHandle                       0x200000b4   Data           4  freertos.o(.data)
    P1TaskHandle                             0x200000b8   Data           4  freertos.o(.data)
    P2TaskHandle                             0x200000bc   Data           4  freertos.o(.data)
    P3TaskHandle                             0x200000c0   Data           4  freertos.o(.data)
    P4TaskHandle                             0x200000c4   Data           4  freertos.o(.data)
    P5TaskHandle                             0x200000c8   Data           4  freertos.o(.data)
    P6TaskHandle                             0x200000cc   Data           4  freertos.o(.data)
    masterOutPort                            0x20000179   Data           1  main.o(.data)
    streamingRate                            0x2000017c   Data           4  main.o(.data)
    ledStatus                                0x20000180   Data           1  main.o(.data)
    streamTest                               0x20000181   Data           1  main.o(.data)
    streamLoose                              0x20000182   Data           1  main.o(.data)
    syncCodeMode0                            0x20000183   Data           1  main.o(.data)
    syncCodeMode1                            0x20000184   Data           1  main.o(.data)
    syncCodeMode2                            0x20000185   Data           1  main.o(.data)
    syncCodeMode3                            0x20000186   Data           1  main.o(.data)
    testCodeMode0                            0x20000187   Data           1  main.o(.data)
    testCodeMode1                            0x20000188   Data           1  main.o(.data)
    testCodeMode2                            0x20000189   Data           1  main.o(.data)
    testCodeMode3                            0x2000018a   Data           1  main.o(.data)
    adc                                      0x2000018c   Data           2  main.o(.data)
    dataBuffer                               0x2000018e   Data          24  main.o(.data)
    SystemCoreClock                          0x200001a8   Data           4  system_stm32f0xx.o(.data)
    AHBPrescTable                            0x200001ac   Data          16  system_stm32f0xx.o(.data)
    myID                                     0x2000026a   Data           2  aos.o(.data)
    myTrig                                   0x2000026c   Data           1  aos.o(.data)
    portStatus                               0x2000026d   Data           7  aos.o(.data)
    UartRxReady                              0x2000031d   Data           1  aos_pd_usart.o(.data)
    UartTxReady                              0x2000031e   Data           1  aos_pd_usart.o(.data)
    PcPort                                   0x2000031f   Data           1  aos_pd_usart.o(.data)
    xCommandConsoleTask                      0x200004d4   Data           4  uart-interrupt-driven-command-console.o(.data)
    pxCurrentTCB                             0x200004ec   Data           4  tasks.o(privileged_data)
    PxSemaphoreHandle                        0x2000061c   Data          28  freertos.o(.bss)
    htim2                                    0x20000638   Data          60  aos.o(.bss)
    htim3                                    0x20000674   Data          60  aos.o(.bss)
    htim7                                    0x200006b0   Data          60  aos.o(.bss)
    huart1                                   0x200006ec   Data         112  aos_pd_usart.o(.bss)
    huart2                                   0x2000075c   Data         112  aos_pd_usart.o(.bss)
    huart3                                   0x200007cc   Data         112  aos_pd_usart.o(.bss)
    huart4                                   0x2000083c   Data         112  aos_pd_usart.o(.bss)
    huart7                                   0x200008ac   Data         112  aos_pd_usart.o(.bss)
    huart8                                   0x2000091c   Data         112  aos_pd_usart.o(.bss)
    hadc                                     0x2000098c   Data          76  aos_pd_adc.o(.bss)
    uplinkDMA1                               0x200009d8   Data          56  aos_pd_dma.o(.bss)
    uplinkDMA2                               0x20000a10   Data          56  aos_pd_dma.o(.bss)
    downlinkDMA1                             0x20000a48   Data          56  aos_pd_dma.o(.bss)
    downlinkDMA2                             0x20000a80   Data          56  aos_pd_dma.o(.bss)
    downlinkDMA3                             0x20000ab8   Data          56  aos_pd_dma.o(.bss)
    xQueueRegistry                           0x20000af0   Data          64  queue.o(.bss)
    __initial_sp                             0x20006f98   Data           0  startup_stm32f091xc.o(STACK)



==============================================================================

Memory Map of the image

  Image Entry point : 0x080000bd

  Load Region LR_IROM1 (Base: 0x08000000, Size: 0x00009b60, Max: 0x00040000, ABSOLUTE, COMPRESSED[0x0000964c])

    Execution Region ER_IROM1 (Base: 0x08000000, Size: 0x00009544, Max: 0x00040000, ABSOLUTE)

    Base Addr    Size         Type   Attr      Idx    E Section Name        Object

    0x08000000   0x000000bc   Data   RO         3712    RESET               startup_stm32f091xc.o
    0x080000bc   0x00000000   Code   RO         3721  * .ARM.Collect$$$$00000000  mc_p.l(entry.o)
    0x080000bc   0x00000004   Code   RO         4022    .ARM.Collect$$$$00000001  mc_p.l(entry2.o)
    0x080000c0   0x00000004   Code   RO         4025    .ARM.Collect$$$$00000004  mc_p.l(entry5.o)
    0x080000c4   0x00000000   Code   RO         4027    .ARM.Collect$$$$00000008  mc_p.l(entry7b.o)
    0x080000c4   0x00000000   Code   RO         4029    .ARM.Collect$$$$0000000A  mc_p.l(entry8b.o)
    0x080000c4   0x00000008   Code   RO         4030    .ARM.Collect$$$$0000000B  mc_p.l(entry9a.o)
    0x080000cc   0x00000000   Code   RO         4032    .ARM.Collect$$$$0000000D  mc_p.l(entry10a.o)
    0x080000cc   0x00000000   Code   RO         4034    .ARM.Collect$$$$0000000F  mc_p.l(entry11a.o)
    0x080000cc   0x00000004   Code   RO         4023    .ARM.Collect$$$$00002712  mc_p.l(entry2.o)
    0x080000d0   0x00000070   Code   RO         3130    .emb_text           port.o
    0x08000140   0x00000058   Code   RO         3713    .text               startup_stm32f091xc.o
    0x08000198   0x0000002c   Code   RO         3724    .text               mc_p.l(uidiv.o)
    0x080001c4   0x00000022   Code   RO         3726    .text               mc_p.l(llushr.o)
    0x080001e6   0x00000002   PAD
    0x080001e8   0x00000024   Code   RO         3728    .text               mc_p.l(rand.o)
    0x0800020c   0x00000024   Code   RO         3731    .text               mc_p.l(memcpya.o)
    0x08000230   0x00000024   Code   RO         3733    .text               mc_p.l(memseta.o)
    0x08000254   0x00000018   Code   RO         3735    .text               mc_p.l(strcat.o)
    0x0800026c   0x0000001a   Code   RO         3737    .text               mc_p.l(strncpy.o)
    0x08000286   0x0000000e   Code   RO         3739    .text               mc_p.l(strlen.o)
    0x08000294   0x0000001c   Code   RO         3741    .text               mc_p.l(strcmp.o)
    0x080002b0   0x0000001a   Code   RO         3743    .text               mc_p.l(memcmp.o)
    0x080002ca   0x00000012   Code   RO         3745    .text               mc_p.l(strcpy.o)
    0x080002dc   0x0000001e   Code   RO         3747    .text               mc_p.l(strncmp.o)
    0x080002fa   0x0000001a   Code   RO         4012    .text               mc_p.l(atoi.o)
    0x08000314   0x0000001a   Code   RO         4014    .text               mc_p.l(atol.o)
    0x0800032e   0x00000028   Code   RO         4016    .text               mf_p.l(f2d.o)
    0x08000356   0x00000038   Code   RO         4018    .text               mf_p.l(d2f.o)
    0x0800038e   0x00000002   PAD
    0x08000390   0x00000014   Code   RO         4020    .text               mf_p.l(cfcmple.o)
    0x080003a4   0x00000060   Code   RO         4039    .text               mc_p.l(uldiv.o)
    0x08000404   0x000000a4   Code   RO         4048    .text               mc_p.l(strtod.o)
    0x080004a8   0x00000070   Code   RO         4050    .text               mc_p.l(strtol.o)
    0x08000518   0x00000000   Code   RO         4052    .text               mc_p.l(iusefp.o)
    0x08000518   0x00000082   Code   RO         4053    .text               mf_p.l(fepilogue.o)
    0x0800059a   0x00000002   PAD
    0x0800059c   0x00000164   Code   RO         4055    .text               mf_p.l(dadd.o)
    0x08000700   0x000000d0   Code   RO         4057    .text               mf_p.l(dmul.o)
    0x080007d0   0x000000f0   Code   RO         4059    .text               mf_p.l(ddiv.o)
    0x080008c0   0x00000040   Code   RO         4061    .text               mf_p.l(dfixul.o)
    0x08000900   0x00000028   Code   RO         4063    .text               mf_p.l(cdrcmple.o)
    0x08000928   0x00000024   Code   RO         4065    .text               mc_p.l(init.o)
    0x0800094c   0x00000020   Code   RO         4068    .text               mc_p.l(llshl.o)
    0x0800096c   0x00000026   Code   RO         4070    .text               mc_p.l(llsshr.o)
    0x08000992   0x00000002   PAD
    0x08000994   0x00000008   Code   RO         4074    .text               mc_p.l(ctype_o.o)
    0x0800099c   0x00000012   Code   RO         4096    .text               mc_p.l(isspace_o.o)
    0x080009ae   0x00000002   PAD
    0x080009b0   0x0000034c   Code   RO         4102    .text               mc_p.l(scanf_fp.o)
    0x08000cfc   0x00000044   Code   RO         4106    .text               mc_p.l(_sgetc.o)
    0x08000d40   0x000000a6   Code   RO         4108    .text               mc_p.l(_strtoul.o)
    0x08000de6   0x000000be   Code   RO         4111    .text               mf_p.l(depilogue.o)
    0x08000ea4   0x0000007a   Code   RO         4115    .text               mc_p.l(llmul.o)
    0x08000f1e   0x0000001e   Code   RO         4120    .text               mc_p.l(_chval.o)
    0x08000f3c   0x0000001c   Code   RO         4122    .text               mf_p.l(dfltul.o)
    0x08000f58   0x00000060   Code   RO         4132    .text               mc_p.l(__dclz77c.o)
    0x08000fb8   0x0000006c   Code   RO         2444    i.ADC_ConversionStop  stm32f0xx_hal_adc.o
    0x08001024   0x000000aa   Code   RO         2448    i.ADC_Disable       stm32f0xx_hal_adc.o
    0x080010ce   0x00000002   PAD
    0x080010d0   0x000000d4   Code   RO         2449    i.ADC_Enable        stm32f0xx_hal_adc.o
    0x080011a4   0x000000a4   Code   RO         2620    i.AOS_init          aos.o
    0x08001248   0x00000160   Code   RO          236    i.DMA1_Ch1_IRQHandler  stm32f0xx_it.o
    0x080013a8   0x00000040   Code   RO          237    i.DMA1_Ch2_3_DMA2_Ch1_2_IRQHandler  stm32f0xx_it.o
    0x080013e8   0x00000040   Code   RO          238    i.DMA1_Ch4_7_DMA2_Ch3_5_IRQHandler  stm32f0xx_it.o
    0x08001428   0x00000020   Code   RO         1188    i.DMA_SetConfig     stm32f0xx_hal_dma.o
    0x08001448   0x00000034   Code   RO         2858    i.DownlinkDMA1_Init  aos_pd_dma.o
    0x0800147c   0x000001ac   Code   RO         2859    i.DownlinkDMA1_Setup  aos_pd_dma.o
    0x08001628   0x00000034   Code   RO         2860    i.DownlinkDMA2_Init  aos_pd_dma.o
    0x0800165c   0x00000034   Code   RO         2862    i.DownlinkDMA3_Init  aos_pd_dma.o
    0x08001690   0x00000008   Code   RO         3632    i.FreeRTOS_CLIGetOutputBuffer  freertos_cli.o
    0x08001698   0x00000066   Code   RO         3633    i.FreeRTOS_CLIGetParameter  freertos_cli.o
    0x080016fe   0x00000002   PAD
    0x08001700   0x000000dc   Code   RO         3634    i.FreeRTOS_CLIProcessCommand  freertos_cli.o
    0x080017dc   0x00000048   Code   RO         3635    i.FreeRTOS_CLIRegisterCommand  freertos_cli.o
    0x08001824   0x00000012   Code   RO          325    i.FrontEndTask      main.o
    0x08001836   0x00000002   PAD
    0x08001838   0x00000068   Code   RO         2621    i.GetPort           aos.o
    0x080018a0   0x00000048   Code   RO         2622    i.GetUart           aos.o
    0x080018e8   0x000001ac   Code   RO         2451    i.HAL_ADC_ConfigChannel  stm32f0xx_hal_adc.o
    0x08001a94   0x0000000e   Code   RO         2458    i.HAL_ADC_GetValue  stm32f0xx_hal_adc.o
    0x08001aa2   0x00000002   PAD
    0x08001aa4   0x000001b0   Code   RO         2460    i.HAL_ADC_Init      stm32f0xx_hal_adc.o
    0x08001c54   0x00000050   Code   RO         2814    i.HAL_ADC_MspInit   aos_pd_adc.o
    0x08001ca4   0x000000e4   Code   RO         2464    i.HAL_ADC_PollForConversion  stm32f0xx_hal_adc.o
    0x08001d88   0x00000078   Code   RO         2466    i.HAL_ADC_Start     stm32f0xx_hal_adc.o
    0x08001e00   0x00000050   Code   RO         2469    i.HAL_ADC_Stop      stm32f0xx_hal_adc.o
    0x08001e50   0x0000091c   Code   RO         1193    i.HAL_DMA_IRQHandler  stm32f0xx_hal_dma.o
    0x0800276c   0x0000005c   Code   RO         1194    i.HAL_DMA_Init      stm32f0xx_hal_dma.o
    0x080027c8   0x00000072   Code   RO         1197    i.HAL_DMA_Start_IT  stm32f0xx_hal_dma.o
    0x0800283a   0x0000001a   Code   RO         1322    i.HAL_Delay         stm32f0xx_hal.o
    0x08002854   0x000001fc   Code   RO         1438    i.HAL_GPIO_Init     stm32f0xx_hal_gpio.o
    0x08002a50   0x00000008   Code   RO         1441    i.HAL_GPIO_TogglePin  stm32f0xx_hal_gpio.o
    0x08002a58   0x0000000c   Code   RO         1442    i.HAL_GPIO_WritePin  stm32f0xx_hal_gpio.o
    0x08002a64   0x0000000c   Code   RO         1326    i.HAL_GetTick       stm32f0xx_hal.o
    0x08002a70   0x00000010   Code   RO         1327    i.HAL_IncTick       stm32f0xx_hal.o
    0x08002a80   0x00000020   Code   RO         1328    i.HAL_Init          stm32f0xx_hal.o
    0x08002aa0   0x00000026   Code   RO         1329    i.HAL_InitTick      stm32f0xx_hal.o
    0x08002ac6   0x00000002   Code   RO         1331    i.HAL_MspInit       stm32f0xx_hal.o
    0x08002ac8   0x00000018   Code   RO          785    i.HAL_NVIC_EnableIRQ  stm32f0xx_hal_cortex.o
    0x08002ae0   0x00000012   Code   RO          789    i.HAL_NVIC_SetPriority  stm32f0xx_hal_cortex.o
    0x08002af2   0x00000002   PAD
    0x08002af4   0x0000017c   Code   RO         1267    i.HAL_RCCEx_PeriphCLKConfig  stm32f0xx_hal_rcc_ex.o
    0x08002c70   0x000002cc   Code   RO          504    i.HAL_RCC_ClockConfig  stm32f0xx_hal_rcc.o
    0x08002f3c   0x0000002c   Code   RO          509    i.HAL_RCC_GetHCLKFreq  stm32f0xx_hal_rcc.o
    0x08002f68   0x00000024   Code   RO          511    i.HAL_RCC_GetPCLK1Freq  stm32f0xx_hal_rcc.o
    0x08002f8c   0x000000f0   Code   RO          512    i.HAL_RCC_GetSysClockFreq  stm32f0xx_hal_rcc.o
    0x0800307c   0x0000065c   Code   RO          515    i.HAL_RCC_OscConfig  stm32f0xx_hal_rcc.o
    0x080036d8   0x00000038   Code   RO          793    i.HAL_SYSTICK_Config  stm32f0xx_hal_cortex.o
    0x08003710   0x00000002   Code   RO         2209    i.HAL_TIMEx_BreakCallback  stm32f0xx_hal_tim_ex.o
    0x08003712   0x00000002   Code   RO         2210    i.HAL_TIMEx_CommutationCallback  stm32f0xx_hal_tim_ex.o
    0x08003714   0x00000062   Code   RO         2226    i.HAL_TIMEx_MasterConfigSynchronization  stm32f0xx_hal_tim_ex.o
    0x08003776   0x00000038   Code   RO         1572    i.HAL_TIM_Base_Init  stm32f0xx_hal_tim.o
    0x080037ae   0x00000002   Code   RO         1574    i.HAL_TIM_Base_MspInit  stm32f0xx_hal_tim.o
    0x080037b0   0x0000001e   Code   RO         1575    i.HAL_TIM_Base_Start  stm32f0xx_hal_tim.o
    0x080037ce   0x00000002   PAD
    0x080037d0   0x00000040   Code   RO         1578    i.HAL_TIM_Base_Stop  stm32f0xx_hal_tim.o
    0x08003810   0x00000002   Code   RO         1601    i.HAL_TIM_IC_CaptureCallback  stm32f0xx_hal_tim.o
    0x08003812   0x000001c8   Code   RO         1614    i.HAL_TIM_IRQHandler  stm32f0xx_hal_tim.o
    0x080039da   0x00000002   Code   RO         1617    i.HAL_TIM_OC_DelayElapsedCallback  stm32f0xx_hal_tim.o
    0x080039dc   0x00000002   Code   RO         1644    i.HAL_TIM_PWM_PulseFinishedCallback  stm32f0xx_hal_tim.o
    0x080039de   0x00000002   Code   RO         1651    i.HAL_TIM_PeriodElapsedCallback  stm32f0xx_hal_tim.o
    0x080039e0   0x00000002   Code   RO         1655    i.HAL_TIM_TriggerCallback  stm32f0xx_hal_tim.o
    0x080039e2   0x00000002   Code   RO         1504    i.HAL_UARTEx_WakeupCallback  stm32f0xx_hal_uart_ex.o
    0x080039e4   0x00000002   Code   RO          956    i.HAL_UART_ErrorCallback  stm32f0xx_hal_uart.o
    0x080039e6   0x0000014e   Code   RO         1505    i.HAL_UART_IRQHandler  stm32f0xx_hal_uart_ex.o
    0x08003b34   0x00000082   Code   RO          959    i.HAL_UART_Init     stm32f0xx_hal_uart.o
    0x08003bb6   0x00000002   PAD
    0x08003bb8   0x000002d0   Code   RO         2690    i.HAL_UART_MspInit  aos_pd_usart.o
    0x08003e88   0x0000014c   Code   RO          962    i.HAL_UART_Receive  stm32f0xx_hal_uart.o
    0x08003fd4   0x000000ac   Code   RO          963    i.HAL_UART_Receive_DMA  stm32f0xx_hal_uart.o
    0x08004080   0x0000002c   Code   RO          239    i.HAL_UART_RxCpltCallback  stm32f0xx_it.o
    0x080040ac   0x00000002   Code   RO          966    i.HAL_UART_RxHalfCpltCallback  stm32f0xx_hal_uart.o
    0x080040ae   0x000000ee   Code   RO          967    i.HAL_UART_Transmit  stm32f0xx_hal_uart.o
    0x0800419c   0x00000084   Code   RO          969    i.HAL_UART_Transmit_IT  stm32f0xx_hal_uart.o
    0x08004220   0x0000002c   Code   RO          240    i.HAL_UART_TxCpltCallback  stm32f0xx_it.o
    0x0800424c   0x00000022   Code   RO         2785    i.IND_LED_Init      aos_pd_gpio.o
    0x0800426e   0x00000002   PAD
    0x08004270   0x00000050   Code   RO         2815    i.MX_ADC_Init       aos_pd_adc.o
    0x080042c0   0x00000054   Code   RO         2864    i.MX_DMA_Init       aos_pd_dma.o
    0x08004314   0x000001b0   Code   RO            3    i.MX_FREERTOS_Init  freertos.o
    0x080044c4   0x00000088   Code   RO         2786    i.MX_GPIO_Init      aos_pd_gpio.o
    0x0800454c   0x00000060   Code   RO         2623    i.MX_TIM2_Init      aos.o
    0x080045ac   0x00000054   Code   RO         2624    i.MX_TIM7_Init      aos.o
    0x08004600   0x0000001c   Code   RO         2691    i.MX_UART_Init      aos_pd_usart.o
    0x0800461c   0x0000003c   Code   RO         2692    i.MX_USART1_UART_Init  aos_pd_usart.o
    0x08004658   0x00000044   Code   RO         2693    i.MX_USART2_UART_Init  aos_pd_usart.o
    0x0800469c   0x0000003c   Code   RO         2694    i.MX_USART3_UART_Init  aos_pd_usart.o
    0x080046d8   0x0000003c   Code   RO         2695    i.MX_USART4_UART_Init  aos_pd_usart.o
    0x08004714   0x00000044   Code   RO         2696    i.MX_USART7_UART_Init  aos_pd_usart.o
    0x08004758   0x0000003c   Code   RO         2697    i.MX_USART8_UART_Init  aos_pd_usart.o
    0x08004794   0x00000078   Code   RO          795    i.NVIC_SetPriority  stm32f0xx_hal_cortex.o
    0x0800480c   0x0000005c   Code   RO            4    i.PxTask            freertos.o
    0x08004868   0x00000002   Code   RO         3131    i.SVC_Handler       port.o
    0x0800486a   0x00000002   PAD
    0x0800486c   0x000000b8   Code   RO          326    i.SampleAndForward  main.o
    0x08004924   0x00000030   Code   RO         2816    i.SamplePD          aos_pd_adc.o
    0x08004954   0x0000000c   Code   RO            5    i.StartDefaultTask  freertos.o
    0x08004960   0x0000003c   Code   RO          327    i.StreamSetup       main.o
    0x0800499c   0x0000000c   Code   RO          241    i.SysTick_Handler   stm32f0xx_it.o
    0x080049a8   0x00000084   Code   RO         2625    i.SystemClock_Config  aos.o
    0x08004a2c   0x00000078   Code   RO          372    i.SystemInit        system_stm32f0xx.o
    0x08004aa4   0x00000018   Code   RO          242    i.TIM2_IRQHandler   stm32f0xx_it.o
    0x08004abc   0x000000a4   Code   RO         1656    i.TIM_Base_SetConfig  stm32f0xx_hal_tim.o
    0x08004b60   0x000000f0   Code   RO          972    i.UART_AdvFeatureConfig  stm32f0xx_hal_uart.o
    0x08004c50   0x00000084   Code   RO          973    i.UART_CheckIdleState  stm32f0xx_hal_uart.o
    0x08004cd4   0x00000026   Code   RO          974    i.UART_DMAError     stm32f0xx_hal_uart.o
    0x08004cfa   0x00000042   Code   RO          975    i.UART_DMAReceiveCplt  stm32f0xx_hal_uart.o
    0x08004d3c   0x0000000e   Code   RO          976    i.UART_DMARxHalfCplt  stm32f0xx_hal_uart.o
    0x08004d4a   0x0000003c   Code   RO          979    i.UART_EndTransmit_IT  stm32f0xx_hal_uart.o
    0x08004d86   0x000000a8   Code   RO          980    i.UART_Receive_IT   stm32f0xx_hal_uart.o
    0x08004e2e   0x00000002   PAD
    0x08004e30   0x0000027c   Code   RO          981    i.UART_SetConfig    stm32f0xx_hal_uart.o
    0x080050ac   0x0000007a   Code   RO          982    i.UART_Transmit_IT  stm32f0xx_hal_uart.o
    0x08005126   0x000000fe   Code   RO          983    i.UART_WaitOnFlagUntilTimeout  stm32f0xx_hal_uart.o
    0x08005224   0x00000020   Code   RO          243    i.USART1_IRQHandler  stm32f0xx_it.o
    0x08005244   0x00000020   Code   RO          244    i.USART2_IRQHandler  stm32f0xx_it.o
    0x08005264   0x00000040   Code   RO          245    i.USART3_8_IRQHandler  stm32f0xx_it.o
    0x080052a4   0x00000030   Code   RO         2865    i.UplinkDMA1_Init   aos_pd_dma.o
    0x080052d4   0x00000198   Code   RO         2866    i.UplinkDMA1_Setup  aos_pd_dma.o
    0x0800546c   0x00000030   Code   RO         2867    i.UplinkDMA2_Init   aos_pd_dma.o
    0x0800549c   0x00000028   Code   RO         3986    i.__0sprintf        mc_p.l(printfa.o)
    0x080054c4   0x0000002e   Code   RO         4113    i.__ARM_clz         mf_p.l(depilogue.o)
    0x080054f2   0x0000001c   Code   RO         2202    i.__ARM_common_switch8  stm32f0xx_hal_tim.o
    0x0800550e   0x00000002   PAD
    0x08005510   0x00000008   Code   RO         4041    i.__aeabi_errno_addr  mc_p.l(errno.o)
    0x08005518   0x0000000c   Code   RO         4042    i.__read_errno      mc_p.l(errno.o)
    0x08005524   0x0000000e   Code   RO         4126    i.__scatterload_copy  mc_p.l(handlers.o)
    0x08005532   0x00000002   Code   RO         4127    i.__scatterload_null  mc_p.l(handlers.o)
    0x08005534   0x0000000e   Code   RO         4128    i.__scatterload_zeroinit  mc_p.l(handlers.o)
    0x08005542   0x00000002   PAD
    0x08005544   0x0000000c   Code   RO         4043    i.__set_errno       mc_p.l(errno.o)
    0x08005550   0x00000158   Code   RO         3991    i._fp_digits        mc_p.l(printfa.o)
    0x080056a8   0x0000000e   Code   RO         4104    i._is_digit         mc_p.l(scanf_fp.o)
    0x080056b6   0x00000002   PAD
    0x080056b8   0x000006ec   Code   RO         3992    i._printf_core      mc_p.l(printfa.o)
    0x08005da4   0x00000020   Code   RO         3993    i._printf_post_padding  mc_p.l(printfa.o)
    0x08005dc4   0x0000002c   Code   RO         3994    i._printf_pre_padding  mc_p.l(printfa.o)
    0x08005df0   0x0000000a   Code   RO         3996    i._sputc            mc_p.l(printfa.o)
    0x08005dfa   0x0000002a   Code   RO         3718    i.atof              m_ps.l(atof.o)
    0x08005e24   0x00000098   Code   RO         2945    i.bootloaderUpdateCommand  aos_cli.o
    0x08005ebc   0x00000012   Code   RO         3299    i.inHandlerMode     cmsis_os.o
    0x08005ece   0x00000010   Code   RO          328    i.main              main.o
    0x08005ede   0x0000001a   Code   RO         3302    i.osDelay           cmsis_os.o
    0x08005ef8   0x0000000a   Code   RO         3305    i.osKernelStart     cmsis_os.o
    0x08005f02   0x00000034   Code   RO         3328    i.osSemaphoreCreate  cmsis_os.o
    0x08005f36   0x00000002   PAD
    0x08005f38   0x0000004c   Code   RO         3330    i.osSemaphoreRelease  cmsis_os.o
    0x08005f84   0x00000070   Code   RO         3331    i.osSemaphoreWait   cmsis_os.o
    0x08005ff4   0x00000010   Code   RO         3334    i.osSystickHandler  cmsis_os.o
    0x08006004   0x00000058   Code   RO         2946    i.pingCommand       aos_cli.o
    0x0800605c   0x0000002e   Code   RO         3636    i.prvGetNumberOfParameters  freertos_cli.o
    0x0800608a   0x00000002   PAD
    0x0800608c   0x0000007c   Code   RO         3274    i.prvHeapInit       heap_4.o
    0x08006108   0x0000004c   Code   RO         3637    i.prvHelpCommand    freertos_cli.o
    0x08006154   0x00000018   Code   RO         3194    i.prvIdleTask       tasks.o
    0x0800616c   0x00000068   Code   RO         3275    i.prvInsertBlockIntoFreeList  heap_4.o
    0x080061d4   0x00000038   Code   RO         3195    i.prvResetNextTaskUnblockTime  tasks.o
    0x0800620c   0x00000030   Code   RO         2947    i.prvRunTimeStatsCommand  aos_cli.o
    0x0800623c   0x00000024   Code   RO         3132    i.prvSetupTimerInterrupt  port.o
    0x08006260   0x00000024   Code   RO         3133    i.prvTaskExitError  port.o
    0x08006284   0x00000030   Code   RO         2948    i.prvTaskStatsCommand  aos_cli.o
    0x080062b4   0x00000138   Code   RO         3682    i.prvUARTCommandConsoleTask  uart-interrupt-driven-command-console.o
    0x080063ec   0x0000002a   Code   RO         3196    i.prvWriteNameToBuffer  tasks.o
    0x08006416   0x00000002   PAD
    0x08006418   0x00000020   Code   RO         3197    i.pvTaskIncrementMutexHeldCount  tasks.o
    0x08006438   0x00000050   Code   RO         2699    i.readPxMutex       aos_pd_usart.o
    0x08006488   0x00000038   Code   RO         2949    i.sampleCommand     aos_cli.o
    0x080064c0   0x000000f8   Code   RO         2950    i.setCommand        aos_cli.o
    0x080065b8   0x00000034   Code   RO         2626    i.startMicroDelay   aos.o
    0x080065ec   0x0000016c   Code   RO         2951    i.streamCommand     aos_cli.o
    0x08006758   0x00000174   Code   RO         2952    i.streamTestCommand  aos_cli.o
    0x080068cc   0x00000060   Code   RO            6    i.ulMainGetRunTimeCounterValue  freertos.o
    0x0800692c   0x0000009c   Code   RO         3198    i.ulTaskNotifyTake  tasks.o
    0x080069c8   0x00000028   Code   RO         3010    i.uxListRemove      list.o
    0x080069f0   0x0000009c   Code   RO         3199    i.uxTaskGetSystemState  tasks.o
    0x08006a8c   0x00000006   Code   RO          246    i.vApplicationMallocFailedHook  stm32f0xx_it.o
    0x08006a92   0x00000006   Code   RO          247    i.vApplicationStackOverflowHook  stm32f0xx_it.o
    0x08006a98   0x0000001a   Code   RO         3011    i.vListInitialise   list.o
    0x08006ab2   0x00000006   Code   RO         3012    i.vListInitialiseItem  list.o
    0x08006ab8   0x00000036   Code   RO         3013    i.vListInsert       list.o
    0x08006aee   0x00000018   Code   RO         3014    i.vListInsertEnd    list.o
    0x08006b06   0x00000002   PAD
    0x08006b08   0x00000020   Code   RO            7    i.vMainConfigureTimerForRunTimeStats  freertos.o
    0x08006b28   0x0000001c   Code   RO         3134    i.vPortEnterCritical  port.o
    0x08006b44   0x00000028   Code   RO         3135    i.vPortExitCritical  port.o
    0x08006b6c   0x00000018   Code   RO         3136    i.vPortYield        port.o
    0x08006b84   0x00000054   Code   RO         2953    i.vRegisterCLICommands  aos_cli.o
    0x08006bd8   0x00000030   Code   RO         3683    i.vUARTCommandConsoleStart  uart-interrupt-driven-command-console.o
    0x08006c08   0x00000038   Code   RO         2700    i.writePxITMutex    aos_pd_usart.o
    0x08006c40   0x00000050   Code   RO         2701    i.writePxMutex      aos_pd_usart.o
    0x08006c90   0x00000024   Code   RO         3137    i.xPortSysTickHandler  port.o
    0x08006cb4   0x000000d4   Code   RO         3201    i.xTaskGenericNotify  tasks.o
    0x08006d88   0x000009a0   Code   RO         3112    privileged_functions  queue.o
    0x08007728   0x00000074   Code   RO         3138    privileged_functions  port.o
    0x0800779c   0x00001048   Code   RO         3204    privileged_functions  tasks.o
    0x080087e4   0x000001ac   Code   RO         3276    privileged_functions  heap_4.o
    0x08008990   0x00000010   Data   RO          516    .constdata          stm32f0xx_hal_rcc.o
    0x080089a0   0x00000080   Data   RO         2954    .constdata          aos_cli.o
    0x08008a20   0x00000014   Data   RO         3205    .constdata          tasks.o
    0x08008a34   0x00000010   Data   RO         3639    .constdata          freertos_cli.o
    0x08008a44   0x00000081   Data   RO         4075    .constdata          mc_p.l(ctype_o.o)
    0x08008ac5   0x00000003   PAD
    0x08008ac8   0x00000004   Data   RO         4076    .constdata          mc_p.l(ctype_o.o)
    0x08008acc   0x0000068f   Data   RO         2955    .conststring        aos_cli.o
    0x0800915b   0x00000001   PAD
    0x0800915c   0x000000dd   Data   RO         3640    .conststring        freertos_cli.o
    0x08009239   0x00000003   PAD
    0x0800923c   0x000002e5   Data   RO         3685    .conststring        uart-interrupt-driven-command-console.o
    0x08009521   0x00000003   PAD
    0x08009524   0x00000020   Data   RO         4124    Region$$Table       anon$$obj.o


    Execution Region RW_IRAM1 (Base: 0x20000000, Size: 0x00006f98, Max: 0x00008000, ABSOLUTE, COMPRESSED[0x00000108])

    Base Addr    Size         Type   Attr      Idx    E Section Name        Object

    0x20000000   0x000000d0   Data   RW            9    .data               freertos.o
    0x200000d0   0x000000d6   Data   RW          329    .data               main.o
    0x200001a6   0x00000002   PAD
    0x200001a8   0x00000014   Data   RW          373    .data               system_stm32f0xx.o
    0x200001bc   0x00000004   Data   RW         1334    .data               stm32f0xx_hal.o
    0x200001c0   0x000000b4   Data   RW         2629    .data               aos.o
    0x20000274   0x000000ac   Data   RW         2703    .data               aos_pd_usart.o
    0x20000320   0x000000d8   Data   RW         2956    .data               aos_cli.o
    0x200003f8   0x00000004   Data   RW         3139    .data               port.o
    0x200003fc   0x00000018   Data   RW         3278    .data               heap_4.o
    0x20000414   0x00000014   Data   RW         3641    .data               freertos_cli.o
    0x20000428   0x000000bc   Data   RW         3686    .data               uart-interrupt-driven-command-console.o
    0x200004e4   0x00000004   Data   RW         3729    .data               mc_p.l(rand.o)
    0x200004e8   0x00000004   Data   RW         4044    .data               mc_p.l(errno.o)
    0x200004ec   0x00000130   Data   RW         3206    privileged_data     tasks.o
    0x2000061c   0x0000001c   Zero   RW            8    .bss                freertos.o
    0x20000638   0x000000b4   Zero   RW         2628    .bss                aos.o
    0x200006ec   0x000002a0   Zero   RW         2702    .bss                aos_pd_usart.o
    0x2000098c   0x0000004c   Zero   RW         2817    .bss                aos_pd_adc.o
    0x200009d8   0x00000118   Zero   RW         2869    .bss                aos_pd_dma.o
    0x20000af0   0x00000040   Zero   RW         3113    .bss                queue.o
    0x20000b30   0x00003000   Zero   RW         3277    .bss                heap_4.o
    0x20003b30   0x00000400   Zero   RW         3638    .bss                freertos_cli.o
    0x20003f30   0x00000064   Zero   RW         3684    .bss                uart-interrupt-driven-command-console.o
    0x20003f94   0x00000004   PAD
    0x20003f98   0x00003000   Zero   RW         3710    STACK               startup_stm32f091xc.o


==============================================================================

Image component sizes


      Code (inc. data)   RO Data    RW Data    ZI Data      Debug   Object Name

       704        108          0        180        180       4687   aos.o
      1460        222       1807        216          0      14367   aos_cli.o
       208         26          0          0         76       2250   aos_pd_adc.o
      1172        150          0          0        280       5273   aos_pd_dma.o
       170          6          0          0          0       1458   aos_pd_gpio.o
      1340        134          0        172        672       7959   aos_pd_usart.o
       310          8          0          0          0      10604   cmsis_os.o
       664        170          0        208         28     317988   freertos.o
       524         34        237         20       1024       6344   freertos_cli.o
       656         52          0         24      12288       4588   heap_4.o
       150          0          0          0          0       4902   list.o
       278         22          0        214          0       3210   main.o
       430         56          0          4          0       7112   port.o
      2464          6          0          0         64      13298   queue.o
        88         34        188          0      12288        788   startup_stm32f091xc.o
       126         14          0          4          0       4128   stm32f0xx_hal.o
      1792         46          0          0          0       7545   stm32f0xx_hal_adc.o
       218         26          0          0          0       8733   stm32f0xx_hal_cortex.o
      2570         32          0          0          0       4391   stm32f0xx_hal_dma.o
       528         28          0          0          0       2889   stm32f0xx_hal_gpio.o
      2664        100         16          0          0       5637   stm32f0xx_hal_rcc.o
       380         12          0          0          0       1448   stm32f0xx_hal_rcc_ex.o
       810         30          0          0          0       7219   stm32f0xx_hal_tim.o
       102          0          0          0          0       2274   stm32f0xx_hal_tim_ex.o
      2738         84          0          0          0      12972   stm32f0xx_hal_uart.o
       336          0          0          0          0       1730   stm32f0xx_hal_uart_ex.o
       744        136          0          0          0       6744   stm32f0xx_it.o
       120         18          0         20          0       1357   system_stm32f0xx.o
      4846        364         20        304          0      23104   tasks.o
       360         42        741        188        100       2449   uart-interrupt-driven-command-console.o

    ----------------------------------------------------------------------
     28982       1960       3048       1556      27004     497448   Object Totals
         0          0         32          0          0          0   (incl. Generated)
        30          0          7          2          4          0   (incl. Padding)

    ----------------------------------------------------------------------

      Code (inc. data)   RO Data    RW Data    ZI Data      Debug   Library Member Name

        42          0          0          0          0         76   atof.o
        96          0          0          0          0          0   __dclz77c.o
        30          0          0          0          0         60   _chval.o
        68          0          0          0          0         76   _sgetc.o
       166          0          0          0          0         84   _strtoul.o
        26          0          0          0          0         72   atoi.o
        26          0          0          0          0         72   atol.o
         8          4        133          0          0         60   ctype_o.o
         0          0          0          0          0          0   entry.o
         0          0          0          0          0          0   entry10a.o
         0          0          0          0          0          0   entry11a.o
         8          4          0          0          0          0   entry2.o
         4          0          0          0          0          0   entry5.o
         0          0          0          0          0          0   entry7b.o
         0          0          0          0          0          0   entry8b.o
         8          4          0          0          0          0   entry9a.o
        32         16          0          4          0        180   errno.o
        30          0          0          0          0          0   handlers.o
        36          8          0          0          0         68   init.o
        18          0          0          0          0         68   isspace_o.o
         0          0          0          0          0          0   iusefp.o
       122          0          0          0          0         84   llmul.o
        32          0          0          0          0         68   llshl.o
        38          0          0          0          0         68   llsshr.o
        34          0          0          0          0         68   llushr.o
        26          0          0          0          0         72   memcmp.o
        36          0          0          0          0         60   memcpya.o
        36          0          0          0          0        100   memseta.o
      2242         94          0          0          0        472   printfa.o
        36         12          0          4          0        120   rand.o
       858         12          0          0          0        184   scanf_fp.o
        24          0          0          0          0         60   strcat.o
        28          0          0          0          0         68   strcmp.o
        18          0          0          0          0         60   strcpy.o
        14          0          0          0          0         60   strlen.o
        30          0          0          0          0         72   strncmp.o
        26          0          0          0          0         68   strncpy.o
       164         18          0          0          0        120   strtod.o
       112          4          0          0          0         76   strtol.o
        44          0          0          0          0         72   uidiv.o
        96          0          0          0          0         84   uldiv.o
        40          2          0          0          0         68   cdrcmple.o
        20          0          0          0          0         68   cfcmple.o
        56          0          0          0          0         68   d2f.o
       356          4          0          0          0        140   dadd.o
       240          6          0          0          0         84   ddiv.o
       236          0          0          0          0        216   depilogue.o
        64         10          0          0          0         68   dfixul.o
        28          6          0          0          0         68   dfltul.o
       208          6          0          0          0         88   dmul.o
        40          0          0          0          0         60   f2d.o
       130          0          0          0          0        144   fepilogue.o

    ----------------------------------------------------------------------
      6046        210        136          8          0       3924   Library Totals
        14          0          3          0          0          0   (incl. Padding)

    ----------------------------------------------------------------------

      Code (inc. data)   RO Data    RW Data    ZI Data      Debug   Library Name

        42          0          0          0          0         76   m_ps.l
      4572        176        133          8          0       2776   mc_p.l
      1418         34          0          0          0       1072   mf_p.l

    ----------------------------------------------------------------------
      6046        210        136          8          0       3924   Library Totals

    ----------------------------------------------------------------------

==============================================================================


      Code (inc. data)   RO Data    RW Data    ZI Data      Debug   

     35028       2170       3184       1564      27004     491936   Grand Totals
     35028       2170       3184        264      27004     491936   ELF Image Totals (compressed)
     35028       2170       3184        264          0          0   ROM Totals

==============================================================================

    Total RO  Size (Code + RO Data)                38212 (  37.32kB)
    Total RW  Size (RW Data + ZI Data)             28568 (  27.90kB)
    Total ROM Size (Code + RO Data + RW Data)      38476 (  37.57kB)

==============================================================================

